###############################################################################
#
# IAR ELF Linker V8.32.3.193/W32 for ARM                  02/Sep/2022  13:40:49
# Copyright 2007-2019 IAR Systems AB.
#
#    Output file  =  ../../Outputs/fbl/Out/fbl.elf
#    Map file     =  ../../Outputs/fbl/Out/fbl.map
#    Command line =  
#        -f
#        c:/Git/eCS_Platform_Git/Tools/Build_Env/Workspace/Build/Makefile/tmp/ilinkCommandLine.xcl
#        (../../Outputs/fbl/Obj/APP_Prg.o
#        ../../Outputs/fbl/Obj/Arm_FaultHandlerThumb_isr.o
#        ../../Outputs/fbl/Obj/Asn1Dcp_devcert.o
#        ../../Outputs/fbl/Obj/Atomics.o
#        ../../Outputs/fbl/Obj/Atomics_TSPlatforms.o
#        ../../Outputs/fbl/Obj/BL_Nvm.o ../../Outputs/fbl/Obj/BlPduR_Cbk.o
#        ../../Outputs/fbl/Obj/BlPduR_Cfg.o ../../Outputs/fbl/Obj/BlPduR_Lin.o
#        ../../Outputs/fbl/Obj/BlPduR_Prg.o ../../Outputs/fbl/Obj/BM_Cbk.o
#        ../../Outputs/fbl/Obj/BM_Cfg.o ../../Outputs/fbl/Obj/BM_Prg.o
#        ../../Outputs/fbl/Obj/BM_SecureBoot.o
#        ../../Outputs/fbl/Obj/BM_Security.o ../../Outputs/fbl/Obj/board.o
#        ../../Outputs/fbl/Obj/board_irq.o
#        ../../Outputs/fbl/Obj/board_reset_vector.o
#        ../../Outputs/fbl/Obj/boardStartup.o
#        ../../Outputs/fbl/Obj/Cal_AsymPublicKeyExtract.o
#        ../../Outputs/fbl/Obj/Cal_AsymPublicKeyExtract_Cfg.o
#        ../../Outputs/fbl/Obj/Cal_Cfg.o ../../Outputs/fbl/Obj/Cal_Compress.o
#        ../../Outputs/fbl/Obj/Cal_Compress_Cfg.o
#        ../../Outputs/fbl/Obj/Cal_Decompress.o
#        ../../Outputs/fbl/Obj/Cal_Decompress_Cfg.o
#        ../../Outputs/fbl/Obj/Cal_Hash.o ../../Outputs/fbl/Obj/Cal_Hash_Cfg.o
#        ../../Outputs/fbl/Obj/Cal_KeyDerive.o
#        ../../Outputs/fbl/Obj/Cal_KeyDerive_Cfg.o
#        ../../Outputs/fbl/Obj/Cal_KeyExchange.o
#        ../../Outputs/fbl/Obj/Cal_KeyExchange_Cfg.o
#        ../../Outputs/fbl/Obj/Cal_MacGenerate.o
#        ../../Outputs/fbl/Obj/Cal_MacGenerate_Cfg.o
#        ../../Outputs/fbl/Obj/Cal_MacVerify.o
#        ../../Outputs/fbl/Obj/Cal_MacVerify_Cfg.o
#        ../../Outputs/fbl/Obj/Cal_Random.o
#        ../../Outputs/fbl/Obj/Cal_Random_Cfg.o
#        ../../Outputs/fbl/Obj/Cal_SignatureVerify.o
#        ../../Outputs/fbl/Obj/Cal_SignatureVerify_Cfg.o
#        ../../Outputs/fbl/Obj/Cal_SymBlockDecrypt.o
#        ../../Outputs/fbl/Obj/Cal_SymBlockDecrypt_Cfg.o
#        ../../Outputs/fbl/Obj/Cal_SymBlockEncrypt.o
#        ../../Outputs/fbl/Obj/Cal_SymBlockEncrypt_Cfg.o
#        ../../Outputs/fbl/Obj/Cal_SymDecrypt.o
#        ../../Outputs/fbl/Obj/Cal_SymDecrypt_Cfg.o
#        ../../Outputs/fbl/Obj/Cal_SymKeyExtract.o
#        ../../Outputs/fbl/Obj/Cal_SymKeyExtract_Cfg.o
#        ../../Outputs/fbl/Obj/Can.o ../../Outputs/fbl/Obj/Can_Cfg.o
#        ../../Outputs/fbl/Obj/Can_Flexcan.o ../../Outputs/fbl/Obj/Can_Irq.o
#        ../../Outputs/fbl/Obj/Can_PBcfg.o ../../Outputs/fbl/Obj/CanIf.o
#        ../../Outputs/fbl/Obj/CanIf_Cfg.o ../../Outputs/fbl/Obj/CanIf_Lcfg.o
#        ../../Outputs/fbl/Obj/CanIf_MultiMF.o
#        ../../Outputs/fbl/Obj/CanIf_PBCfg.o ../../Outputs/fbl/Obj/CanSM.o
#        ../../Outputs/fbl/Obj/CanSM_ALV.o ../../Outputs/fbl/Obj/CanSM_Cbk.o
#        ../../Outputs/fbl/Obj/CanSM_Cfg.o
#        ../../Outputs/fbl/Obj/CanSM_GetCurrentComMode.o
#        ../../Outputs/fbl/Obj/CanSM_GetVersionInfo.o
#        ../../Outputs/fbl/Obj/CanSM_Init.o
#        ../../Outputs/fbl/Obj/CanSM_MainFunction.o
#        ../../Outputs/fbl/Obj/CanSM_RequestComMode.o
#        ../../Outputs/fbl/Obj/CanSM_SetBaudrate.o
#        ../../Outputs/fbl/Obj/CanSM_StateMachine.o
#        ../../Outputs/fbl/Obj/CanTp.o
#        ../../Outputs/fbl/Obj/CanTp_CancelReceive.o
#        ../../Outputs/fbl/Obj/CanTp_CancelTransmit.o
#        ../../Outputs/fbl/Obj/CanTp_Cfg.o
#        ../../Outputs/fbl/Obj/CanTp_ChangeParameter.o
#        ../../Outputs/fbl/Obj/CanTp_EntryTable.o
#        ../../Outputs/fbl/Obj/CanTp_ExitTable.o
#        ../../Outputs/fbl/Obj/CanTp_GetNSa.o
#        ../../Outputs/fbl/Obj/CanTp_GetVersionInfo.o
#        ../../Outputs/fbl/Obj/CanTp_Gpt_Cbk.o
#        ../../Outputs/fbl/Obj/CanTp_Init.o ../../Outputs/fbl/Obj/CanTp_Lcfg.o
#        ../../Outputs/fbl/Obj/CanTp_MainFunction.o
#        ../../Outputs/fbl/Obj/CanTp_PBCfg.o
#        ../../Outputs/fbl/Obj/CanTp_PrepareFC.o
#        ../../Outputs/fbl/Obj/CanTp_PreparexF.o
#        ../../Outputs/fbl/Obj/CanTp_ReadParameter.o
#        ../../Outputs/fbl/Obj/CanTp_RxBufferDependentSend.o
#        ../../Outputs/fbl/Obj/CanTp_RxIndication.o
#        ../../Outputs/fbl/Obj/CanTp_SetNSa.o
#        ../../Outputs/fbl/Obj/CanTp_STminCallback.o
#        ../../Outputs/fbl/Obj/CanTp_StopChannel.o
#        ../../Outputs/fbl/Obj/CanTp_Transmit.o
#        ../../Outputs/fbl/Obj/CanTp_TransmitFrame.o
#        ../../Outputs/fbl/Obj/CanTp_TxBufferDependentSend.o
#        ../../Outputs/fbl/Obj/CanTp_TxConfirmation.o
#        ../../Outputs/fbl/Obj/CanTp_UnlockChannel.o
#        ../../Outputs/fbl/Obj/ComM.o ../../Outputs/fbl/Obj/ComStack_Helpers.o
#        ../../Outputs/fbl/Obj/Cpl_ARLEDecompress.o
#        ../../Outputs/fbl/Obj/Cpl_ARLEDecompress_Cfg.o
#        ../../Outputs/fbl/Obj/Cpl_Common.o
#        ../../Outputs/fbl/Obj/Cpl_LZMADecompress.o
#        ../../Outputs/fbl/Obj/Cpl_LZMADecompress_Cfg.o
#        ../../Outputs/fbl/Obj/Cpl_LZSSCompress.o
#        ../../Outputs/fbl/Obj/Cpl_LZSSCompress_Cfg.o
#        ../../Outputs/fbl/Obj/Cpl_LZSSDecompress.o
#        ../../Outputs/fbl/Obj/Cpl_LZSSDecompress_Cfg.o
#        ../../Outputs/fbl/Obj/Cpl_RLECompress.o
#        ../../Outputs/fbl/Obj/Cpl_RLECompress_Cfg.o
#        ../../Outputs/fbl/Obj/Cpl_RLEDecompress.o
#        ../../Outputs/fbl/Obj/Cpl_RLEDecompress_Cfg.o
#        ../../Outputs/fbl/Obj/Crc.o ../../Outputs/fbl/Obj/Cry_AES_Common.o
#        ../../Outputs/fbl/Obj/Cry_AES_Decrypt.o
#        ../../Outputs/fbl/Obj/Cry_AES_DecryptConfig.o
#        ../../Outputs/fbl/Obj/Cry_AES_Encrypt.o
#        ../../Outputs/fbl/Obj/Cry_AES_EncryptConfig.o
#        ../../Outputs/fbl/Obj/Cry_Base64.o
#        ../../Outputs/fbl/Obj/Cry_CbcPkcs7Decrypt.o
#        ../../Outputs/fbl/Obj/Cry_CbcPkcs7DecryptConfig.o
#        ../../Outputs/fbl/Obj/Cry_CbcPkcs7Encrypt.o
#        ../../Outputs/fbl/Obj/Cry_CbcPkcs7EncryptConfig.o
#        ../../Outputs/fbl/Obj/Cry_CCM_Common.o
#        ../../Outputs/fbl/Obj/Cry_CCMDecrypt.o
#        ../../Outputs/fbl/Obj/Cry_CcmDecryptConfig.o
#        ../../Outputs/fbl/Obj/Cry_CCMEncrypt.o
#        ../../Outputs/fbl/Obj/Cry_CcmEncryptConfig.o
#        ../../Outputs/fbl/Obj/Cry_CMAC.o ../../Outputs/fbl/Obj/Cry_CMACGen.o
#        ../../Outputs/fbl/Obj/Cry_CMACGenConfig.o
#        ../../Outputs/fbl/Obj/Cry_CMACVrfy.o
#        ../../Outputs/fbl/Obj/Cry_CMACVrfyConfig.o
#        ../../Outputs/fbl/Obj/Cry_Common.o ../../Outputs/fbl/Obj/Cry_CRC.o
#        ../../Outputs/fbl/Obj/Cry_CRC_Config.o
#        ../../Outputs/fbl/Obj/Cry_CVCPublicKeyExtract.o
#        ../../Outputs/fbl/Obj/Cry_CVCPublicKeyExtractConfig.o
#        ../../Outputs/fbl/Obj/Cry_Der.o ../../Outputs/fbl/Obj/Cry_DerCVC.o
#        ../../Outputs/fbl/Obj/Cry_EdDSA.o ../../Outputs/fbl/Obj/Cry_EdDSAGen.o
#        ../../Outputs/fbl/Obj/Cry_EdDSAGenConfig.o
#        ../../Outputs/fbl/Obj/Cry_EdDSAVrfy.o
#        ../../Outputs/fbl/Obj/Cry_EdDSAVrfyConfig.o
#        ../../Outputs/fbl/Obj/Cry_ExtractECPubKey.o
#        ../../Outputs/fbl/Obj/Cry_ExtractECPubKeyConfig.o
#        ../../Outputs/fbl/Obj/Cry_ExtractRsaPublicKey.o
#        ../../Outputs/fbl/Obj/Cry_ExtractRsaPublicKeyConfig.o
#        ../../Outputs/fbl/Obj/Cry_HMACGen.o
#        ../../Outputs/fbl/Obj/Cry_HMACGenConfig.o
#        ../../Outputs/fbl/Obj/Cry_HMACVrfy.o
#        ../../Outputs/fbl/Obj/Cry_HMACVrfyConfig.o
#        ../../Outputs/fbl/Obj/Cry_KEY_SYM_Extract.o
#        ../../Outputs/fbl/Obj/Cry_KEY_SYM_ExtractConfig.o
#        ../../Outputs/fbl/Obj/Cry_LN.o ../../Outputs/fbl/Obj/Cry_MD5.o
#        ../../Outputs/fbl/Obj/Cry_MD5Config.o
#        ../../Outputs/fbl/Obj/Cry_RsaSsaPssVerify.o
#        ../../Outputs/fbl/Obj/Cry_RsaSsaPssVerifyConfig.o
#        ../../Outputs/fbl/Obj/Cry_RsaSsaV15Gen.o
#        ../../Outputs/fbl/Obj/Cry_RsaSsaV15GenConfig.o
#        ../../Outputs/fbl/Obj/Cry_RsaSsaV15Verify.o
#        ../../Outputs/fbl/Obj/Cry_RsaSsaV15VerifyConfig.o
#        ../../Outputs/fbl/Obj/Cry_SHA_Common.o
#        ../../Outputs/fbl/Obj/Cry_SHA1.o
#        ../../Outputs/fbl/Obj/Cry_SHA1Config.o
#        ../../Outputs/fbl/Obj/Cry_SHA2.o
#        ../../Outputs/fbl/Obj/Cry_SHA2Config.o
#        ../../Outputs/fbl/Obj/Cry_SHA3.o ../../Outputs/fbl/Obj/Cry_SHA3_Impl.o
#        ../../Outputs/fbl/Obj/Cry_SHA3Config.o
#        ../../Outputs/fbl/Obj/Cry_SSGGenerate.o
#        ../../Outputs/fbl/Obj/Cry_SSGGenerateConfig.o
#        ../../Outputs/fbl/Obj/Cry_SSGSeed.o
#        ../../Outputs/fbl/Obj/Cry_SSGSeedConfig.o
#        ../../Outputs/fbl/Obj/Cry_SSGStateConfig.o ../../Outputs/fbl/Obj/Csm.o
#        ../../Outputs/fbl/Obj/Csm_AsymPrivateKeyWrapAsym.o
#        ../../Outputs/fbl/Obj/Csm_AsymPrivateKeyWrapAsymCfg.o
#        ../../Outputs/fbl/Obj/Csm_AsymPrivateKeyWrapSym.o
#        ../../Outputs/fbl/Obj/Csm_AsymPrivateKeyWrapSymCfg.o
#        ../../Outputs/fbl/Obj/Csm_AsymPublicKeyExtract.o
#        ../../Outputs/fbl/Obj/Csm_AsymPublicKeyExtractCfg.o
#        ../../Outputs/fbl/Obj/Csm_Checksum.o
#        ../../Outputs/fbl/Obj/Csm_ChecksumCfg.o
#        ../../Outputs/fbl/Obj/Csm_Hash.o ../../Outputs/fbl/Obj/Csm_HashCfg.o
#        ../../Outputs/fbl/Obj/Csm_MacGenerate.o
#        ../../Outputs/fbl/Obj/Csm_MacGenerateCfg.o
#        ../../Outputs/fbl/Obj/Csm_MacVerify.o
#        ../../Outputs/fbl/Obj/Csm_MacVerifyCfg.o
#        ../../Outputs/fbl/Obj/Csm_RandomGenerate.o
#        ../../Outputs/fbl/Obj/Csm_RandomGenerateCfg.o
#        ../../Outputs/fbl/Obj/Csm_RandomSeed.o
#        ../../Outputs/fbl/Obj/Csm_RandomSeedCfg.o
#        ../../Outputs/fbl/Obj/Csm_SignatureGenerate.o
#        ../../Outputs/fbl/Obj/Csm_SignatureGenerateCfg.o
#        ../../Outputs/fbl/Obj/Csm_SignatureVerify.o
#        ../../Outputs/fbl/Obj/Csm_SignatureVerifyCfg.o
#        ../../Outputs/fbl/Obj/Csm_SymBlockDecrypt.o
#        ../../Outputs/fbl/Obj/Csm_SymBlockDecryptCfg.o
#        ../../Outputs/fbl/Obj/Csm_SymBlockEncrypt.o
#        ../../Outputs/fbl/Obj/Csm_SymBlockEncryptCfg.o
#        ../../Outputs/fbl/Obj/Csm_SymDecrypt.o
#        ../../Outputs/fbl/Obj/Csm_SymDecryptCfg.o
#        ../../Outputs/fbl/Obj/Csm_SymEncrypt.o
#        ../../Outputs/fbl/Obj/Csm_SymEncryptCfg.o
#        ../../Outputs/fbl/Obj/Csm_SymKeyExtract.o
#        ../../Outputs/fbl/Obj/Csm_SymKeyExtractCfg.o
#        ../../Outputs/fbl/Obj/Csm_SymKeyWrapAsym.o
#        ../../Outputs/fbl/Obj/Csm_SymKeyWrapAsymCfg.o
#        ../../Outputs/fbl/Obj/Csm_SymKeyWrapSym.o
#        ../../Outputs/fbl/Obj/Csm_SymKeyWrapSymCfg.o
#        ../../Outputs/fbl/Obj/Det.o ../../Outputs/fbl/Obj/Det_ASR32_Rte.o
#        ../../Outputs/fbl/Obj/Det_ASR40_Rte.o
#        ../../Outputs/fbl/Obj/Det_ASR43_Rte.o
#        ../../Outputs/fbl/Obj/Det_Int_Cfg.o ../../Outputs/fbl/Obj/Det_Rte.o
#        ../../Outputs/fbl/Obj/EcuC.o ../../Outputs/fbl/Obj/EcuC_Cfg.o
#        ../../Outputs/fbl/Obj/EcuC_MetaData.o
#        ../../Outputs/fbl/Obj/exceptiontable.o ../../Outputs/fbl/Obj/Fee.o
#        ../../Outputs/fbl/Obj/Fee_Cfg.o ../../Outputs/fbl/Obj/FLASH_Cfg.o
#        ../../Outputs/fbl/Obj/FLASH_LLD.o ../../Outputs/fbl/Obj/FLASH_Prg.o
#        ../../Outputs/fbl/Obj/Fls.o ../../Outputs/fbl/Obj/Fls_Ac.o
#        ../../Outputs/fbl/Obj/Fls_Cfg.o ../../Outputs/fbl/Obj/Fls_Flash.o
#        ../../Outputs/fbl/Obj/Fls_Flash_Const.o
#        ../../Outputs/fbl/Obj/Fls_IPW.o ../../Outputs/fbl/Obj/Fls_PBcfg.o
#        ../../Outputs/fbl/Obj/Fls_Qspi.o ../../Outputs/fbl/Obj/Fls_Qspi_Irq.o
#        ../../Outputs/fbl/Obj/FLS_S32K14X.o
#        ../../Outputs/fbl/Obj/interruptvectors.o ../../Outputs/fbl/Obj/main.o
#        ../../Outputs/fbl/Obj/Mcu.o ../../Outputs/fbl/Obj/Mcu_Cfg.o
#        ../../Outputs/fbl/Obj/Mcu_CMU.o ../../Outputs/fbl/Obj/Mcu_CMU_Irq.o
#        ../../Outputs/fbl/Obj/Mcu_CortexM4.o ../../Outputs/fbl/Obj/Mcu_IPW.o
#        ../../Outputs/fbl/Obj/Mcu_IPW_Irq.o ../../Outputs/fbl/Obj/Mcu_PBcfg.o
#        ../../Outputs/fbl/Obj/Mcu_PCC.o ../../Outputs/fbl/Obj/Mcu_PMC.o
#        ../../Outputs/fbl/Obj/Mcu_PMC_Irq.o ../../Outputs/fbl/Obj/Mcu_RCM.o
#        ../../Outputs/fbl/Obj/Mcu_RCM_Irq.o ../../Outputs/fbl/Obj/Mcu_SCG.o
#        ../../Outputs/fbl/Obj/Mcu_SIM.o ../../Outputs/fbl/Obj/Mcu_SMC.o
#        ../../Outputs/fbl/Obj/MemIf.o ../../Outputs/fbl/Obj/NvM.o
#        ../../Outputs/fbl/Obj/NvM_ASR32_Rte.o
#        ../../Outputs/fbl/Obj/NvM_ASR40_Rte.o
#        ../../Outputs/fbl/Obj/NvM_ASR42_Rte.o
#        ../../Outputs/fbl/Obj/NvM_BlockCheck.o
#        ../../Outputs/fbl/Obj/NvM_CalcCrc.o ../../Outputs/fbl/Obj/NvM_Cfg.o
#        ../../Outputs/fbl/Obj/NvM_DataIntern.o
#        ../../Outputs/fbl/Obj/NvM_FirstInitAll.o
#        ../../Outputs/fbl/Obj/NvM_Queue.o ../../Outputs/fbl/Obj/NvM_ReadAll.o
#        ../../Outputs/fbl/Obj/NvM_ReadBlock.o
#        ../../Outputs/fbl/Obj/NvM_RestoreBlockDefaults.o
#        ../../Outputs/fbl/Obj/NvM_Rte.o
#        ../../Outputs/fbl/Obj/NvM_StateMachine.o
#        ../../Outputs/fbl/Obj/NvM_ValidateAll.o
#        ../../Outputs/fbl/Obj/NvM_Wrapper.o
#        ../../Outputs/fbl/Obj/NvM_WriteAll.o
#        ../../Outputs/fbl/Obj/NvM_WriteBlock.o ../../Outputs/fbl/Obj/PduR.o
#        ../../Outputs/fbl/Obj/PduR_AdjLayerApi.o
#        ../../Outputs/fbl/Obj/PduR_DisableRouting.o
#        ../../Outputs/fbl/Obj/PduR_EnableRouting.o
#        ../../Outputs/fbl/Obj/PduR_GateIfRxIndicationDf.o
#        ../../Outputs/fbl/Obj/PduR_GateIfRxIndicationDfDynPyld.o
#        ../../Outputs/fbl/Obj/PduR_GateIfRxIndicationDfMCoreDynPyld.o
#        ../../Outputs/fbl/Obj/PduR_GateIfRxIndicationMcUpSbDynPyld.o
#        ../../Outputs/fbl/Obj/PduR_GateIfRxIndicationNb.o
#        ../../Outputs/fbl/Obj/PduR_GateIfRxIndicationSb.o
#        ../../Outputs/fbl/Obj/PduR_GateIfRxIndicationSbDynPyld.o
#        ../../Outputs/fbl/Obj/PduR_GateIfRxIndicationSbMCoreDynPyld.o
#        ../../Outputs/fbl/Obj/PduR_GateIfRxIndicationTf.o
#        ../../Outputs/fbl/Obj/PduR_GateIfRxIndicationTfDynPyld.o
#        ../../Outputs/fbl/Obj/PduR_GateIfTriggerTransmitSb.o
#        ../../Outputs/fbl/Obj/PduR_GateIfTriggerTransmitSbDynPyld.o
#        ../../Outputs/fbl/Obj/PduR_GateIfTriggerTransmitTf.o
#        ../../Outputs/fbl/Obj/PduR_GateIfTriggerTransmitTfDynPyld.o
#        ../../Outputs/fbl/Obj/PduR_GateIfTxConfirmationDf.o
#        ../../Outputs/fbl/Obj/PduR_GateIfTxConfirmationDfDynPyld.o
#        ../../Outputs/fbl/Obj/PduR_GateIfTxConfirmationDfMCoreDynPyld.o
#        ../../Outputs/fbl/Obj/PduR_GateIfTxConfirmationTf.o
#        ../../Outputs/fbl/Obj/PduR_GateIfTxConfirmationTfDynPyld.o
#        ../../Outputs/fbl/Obj/PduR_GateTp.o
#        ../../Outputs/fbl/Obj/PduR_GateTpCopyRxData.o
#        ../../Outputs/fbl/Obj/PduR_GateTpCopyTxData.o
#        ../../Outputs/fbl/Obj/PduR_GateTpRxIndication.o
#        ../../Outputs/fbl/Obj/PduR_GateTpStartOfReception.o
#        ../../Outputs/fbl/Obj/PduR_GateTpTxConfirmation.o
#        ../../Outputs/fbl/Obj/PduR_GateTpUpReception.o
#        ../../Outputs/fbl/Obj/PduR_GenericIfRxIndication.o
#        ../../Outputs/fbl/Obj/PduR_GenericIfTransmit.o
#        ../../Outputs/fbl/Obj/PduR_GenericIfTriggerTransmit.o
#        ../../Outputs/fbl/Obj/PduR_GenericIfTxConfirmation.o
#        ../../Outputs/fbl/Obj/PduR_GenericTpCancelReceive.o
#        ../../Outputs/fbl/Obj/PduR_GenericTpCancelTransmit.o
#        ../../Outputs/fbl/Obj/PduR_GenericTpChangeParameter.o
#        ../../Outputs/fbl/Obj/PduR_GenericTpCopyRxData.o
#        ../../Outputs/fbl/Obj/PduR_GenericTpCopyTxData.o
#        ../../Outputs/fbl/Obj/PduR_GenericTpRxIndication.o
#        ../../Outputs/fbl/Obj/PduR_GenericTpStartOfReception.o
#        ../../Outputs/fbl/Obj/PduR_GenericTpTransmit.o
#        ../../Outputs/fbl/Obj/PduR_GenericTpTxConfirmation.o
#        ../../Outputs/fbl/Obj/PduR_GetConfigurationId.o
#        ../../Outputs/fbl/Obj/PduR_GetVersionInfo.o
#        ../../Outputs/fbl/Obj/PduR_Init.o
#        ../../Outputs/fbl/Obj/PduR_IsValidConfig.o
#        ../../Outputs/fbl/Obj/PduR_Lcfg.o ../../Outputs/fbl/Obj/PduR_MultiIf.o
#        ../../Outputs/fbl/Obj/PduR_MultiIfRxIndication.o
#        ../../Outputs/fbl/Obj/PduR_MultiIfTriggerTransmit.o
#        ../../Outputs/fbl/Obj/PduR_MultiIfTxConfirmation.o
#        ../../Outputs/fbl/Obj/PduR_MultiTp.o
#        ../../Outputs/fbl/Obj/PduR_MultiTpCopyTxData.o
#        ../../Outputs/fbl/Obj/PduR_MultiTpTransmit.o
#        ../../Outputs/fbl/Obj/PduR_MultiTpTxConfirmation.o
#        ../../Outputs/fbl/Obj/PduR_MultiUpIfTransmit.o
#        ../../Outputs/fbl/Obj/PduR_MultiUpMCoreIfTransmit.o
#        ../../Outputs/fbl/Obj/PduR_Nto1GateTpCopyRxData.o
#        ../../Outputs/fbl/Obj/PduR_Nto1GateTpCopyTxData.o
#        ../../Outputs/fbl/Obj/PduR_Nto1GateTpRxIndication.o
#        ../../Outputs/fbl/Obj/PduR_Nto1GateTpStartOfReception.o
#        ../../Outputs/fbl/Obj/PduR_Nto1GateTpTxConfirmation.o
#        ../../Outputs/fbl/Obj/PduR_PBcfg.o
#        ../../Outputs/fbl/Obj/PduR_RPathGroups.o
#        ../../Outputs/fbl/Obj/PduR_WrapASR32.o ../../Outputs/fbl/Obj/Port.o
#        ../../Outputs/fbl/Obj/Port_Cfg.o ../../Outputs/fbl/Obj/Port_Ipw.o
#        ../../Outputs/fbl/Obj/Port_PBcfg.o
#        ../../Outputs/fbl/Obj/Port_Port_Ci.o ../../Outputs/fbl/Obj/PROG_Cbk.o
#        ../../Outputs/fbl/Obj/PROG_Cfg.o ../../Outputs/fbl/Obj/PROG_Cry.o
#        ../../Outputs/fbl/Obj/PROG_Cust_AppliCheck.o
#        ../../Outputs/fbl/Obj/PROG_Cust_Crc.o
#        ../../Outputs/fbl/Obj/PROG_Cust_Init.o
#        ../../Outputs/fbl/Obj/PROG_Cust_SBL.o
#        ../../Outputs/fbl/Obj/PROG_Decomp.o
#        ../../Outputs/fbl/Obj/PROG_DowngradeProtection.o
#        ../../Outputs/fbl/Obj/PROG_Driver.o
#        ../../Outputs/fbl/Obj/PROG_Encrypt.o
#        ../../Outputs/fbl/Obj/PROG_Erase.o ../../Outputs/fbl/Obj/PROG_Hsm.o
#        ../../Outputs/fbl/Obj/PROG_HsmPROGData.o
#        ../../Outputs/fbl/Obj/PROG_HsmPROGFnct.o
#        ../../Outputs/fbl/Obj/PROG_Impl_0.o
#        ../../Outputs/fbl/Obj/PROG_Impl_10.o
#        ../../Outputs/fbl/Obj/PROG_Impl_20.o
#        ../../Outputs/fbl/Obj/PROG_Impl_30.o
#        ../../Outputs/fbl/Obj/PROG_Impl_80.o
#        ../../Outputs/fbl/Obj/PROG_Impl_90.o ../../Outputs/fbl/Obj/PROG_Mem.o
#        ../../Outputs/fbl/Obj/PROG_Prg.o
#        ../../Outputs/fbl/Obj/PROG_Responses.o
#        ../../Outputs/fbl/Obj/PROG_ResumeReprog.o
#        ../../Outputs/fbl/Obj/PROG_Security.o
#        ../../Outputs/fbl/Obj/SA_AuthMethod0001.o
#        ../../Outputs/fbl/Obj/SA_Cbk.o ../../Outputs/fbl/Obj/SA_Cfg.o
#        ../../Outputs/fbl/Obj/SA_Decomp.o ../../Outputs/fbl/Obj/SA_Prg.o
#        ../../Outputs/fbl/Obj/SchM.o ../../Outputs/fbl/Obj/Spi.o
#        ../../Outputs/fbl/Obj/Spi_Cfg.o ../../Outputs/fbl/Obj/Spi_FlexIO.o
#        ../../Outputs/fbl/Obj/Spi_FlexIO_Irq.o ../../Outputs/fbl/Obj/Spi_IPW.o
#        ../../Outputs/fbl/Obj/Spi_LPspi.o
#        ../../Outputs/fbl/Obj/Spi_LPspi_Irq.o
#        ../../Outputs/fbl/Obj/Spi_PBcfg.o ../../Outputs/fbl/Obj/SpiIf.o
#        ../../Outputs/fbl/Obj/SpiIf_cfg.o ../../Outputs/fbl/Obj/TSMem.o
#        ../../Outputs/fbl/Obj/TSPBConfig.o ../../Outputs/fbl/Obj/UDS_Cbk.o
#        ../../Outputs/fbl/Obj/UDS_Cfg.o ../../Outputs/fbl/Obj/UDS_Prg.o
#        ../../Outputs/fbl/Obj/Watchdog.o --no_wrap_diagnostics --semihosting
#        --entry boardResetStart --config Bootloader/BootLoader_Linker.ldscript
#        --map ../../Outputs/fbl/Out/fbl.map -o ../../Outputs/fbl/Out/fbl.elf)
#
###############################################################################

*******************************************************************************
*** RUNTIME MODEL ATTRIBUTES
***

__SystemLibrary = DLib
__dlib_version  = 6


*******************************************************************************
*** HEAP SELECTION
***

The basic heap was selected because no calls to memory allocation
functions were found in the application outside of system library
functions, and there are calls to deallocation functions in the
application.


*******************************************************************************
*** PLACEMENT SUMMARY
***

define block reset_vector
   with fixed order, alignment = 256 {
      object board_reset_vector.o section .rodata,
      object board_reset_vector.o section .rodata*, section .startup,
      section .startup.* };
"A0":  place at start of [from 0x1000 to 0x10ff] { block reset_vector };
define block ExceptionTable
   with fixed order, alignment = 256 {
      section .ExceptionTable, section .ExceptionTable.*,
      section .InterruptTable, section .InterruptTable.* };
"P1":  place in [from 0x1800 to 0x1bff] { block ExceptionTable };
define block text
   with fixed order, alignment = 32 {
      section .os_text, section .os_text.*, section .text, section .text.*,
      section i.*, section i.*.* };
"P2":  place in [from 0x2300 to 0x1'ffff] { block text };
define block rodata
   with fixed order, alignment = 32 {
      section .const*, section .const*.*, section .constdata,
      section .constdata.*, section .rodata, section .rodata.* };
"P4":  place in [from 0x2300 to 0x1'ffff] { block rodata };
define block DATA_init
   with fixed order, alignment = 32 {
      section .data_init, section .data.*_init };
"P5":  place in [from 0x2300 to 0x1'ffff] { block DATA_init };
define block Flash_Rom
   with fixed order, alignment = 32 {
      section .fls_driver, section .fls_driver.* };
"P3":  place in [from 0x1c00 to 0x1dff] { block Flash_Rom };
define block noinit
   with fixed order, alignment = 32 {
      section .prog_sig, section .prog_sig.*, section .ram_no_init,
      section .ram_no_init.* };
"P6":  place in [from 0x2000'3f00 to 0x2000'3fff] { block noinit };
define block BSS
   with fixed order, alignment = 32 {
      section *.stack*, section *.stack.*, section .bss, section .bss.*,
      section .bss.*.*, section .os_idlestack, section .os_idlestack.*,
      section COMMON, section COMMON.* };
define block DATA
   with fixed order, alignment = 32 { section .data, section .data.* }
      except { section *_init };
define block group_DATABSS with fixed order { block BSS, block DATA };
"P7":  place in [from 0x1fff'9200 to 0x2000'3eff] { block group_DATABSS };
do not initialize {
   section .bss*, section .stack*, section .prog_sig*, section .ram_no_init* };
initialize manually with packing = copy, complex ranges {
   section .data, section .data.* };
keep {
   object board_reset_vector.o section .rodata,
   object board_reset_vector.o section .rodata* };

No sections matched the following patterns:

  section *.stack.*          in block BSS
  section .ExceptionTable.*  in block ExceptionTable
  section .InterruptTable.*  in block ExceptionTable
  section .bss.*             in block BSS
  section .bss.*.*           in block BSS
  section .const*            in block rodata
  section .const*.*          in block rodata
  section .constdata         in block rodata
  section .constdata.*       in block rodata
  section .data.*            in block DATA
  section .data.*_init       in block DATA_init
  section .fls_driver.*      in block Flash_Rom
  section .os_idlestack      in block BSS
  section .os_idlestack.*    in block BSS
  section .os_text           in block text
  section .os_text.*         in block text
  section .prog_sig.*        in block noinit
  section .ram_no_init       in block noinit
  section .ram_no_init.*     in block noinit
  section .rodata.*          in block rodata
  section .startup.*         in block reset_vector
  section .text.*            in block text
  section COMMON             in block BSS
  section COMMON.*           in block BSS
  section i.*                in block text
  section i.*.*              in block text


  Section              Kind         Address    Size  Object
  -------              ----         -------    ----  ------
"A0":                                          0xae
  reset_vector                       0x1000    0xae  <Block>
    .rodata            const         0x1000     0x8  board_reset_vector.o [1]
    .startup           ro code       0x1008    0xa6  boardStartup.o [1]
                                   - 0x10ae    0xae

"P1":                                         0x2c0
  ExceptionTable                     0x1800   0x2c0  <Block>
    .ExceptionTable    ro code       0x1800    0x40  exceptiontable.o [1]
    .InterruptTable    ro code       0x1840   0x280  interruptvectors.o [1]
                                   - 0x1ac0   0x2c0

"P3":                                         0x188
  Flash_Rom                          0x1c00   0x188  <Block>
    .fls_driver        ro code       0x1c00   0x188  FLS_S32K14X.o [1]
                                   - 0x1d88   0x188

"P2|P4-P5":                                  0xfe38
  text                               0x2300  0xd0e4  <Block>
    .text              ro code       0x2300    0x80  APP_Prg.o [1]
    .text              ro code       0x2380   0x274  board.o [1]
    .text              ro code       0x25f4     0x4  BM_Cbk.o [1]
    .text              ro code       0x25f8    0x70  main.o [1]
    .text              ro code       0x2668   0x306  SpiIf.o [1]
    .text              ro code       0x296e     0x2  BL_Nvm.o [1]
    .text              ro code       0x2970    0x90  Mcu.o [1]
    .text              ro code       0x2a00    0x18  Port.o [1]
    .text              ro code       0x2a18    0x44  BM_Prg.o [1]
    .text              ro code       0x2a5c   0x408  Spi.o [1]
    .text              ro code       0x2e64   0x6bc  BlPduR_Prg.o [1]
    .text              ro code       0x3520  0x1d3e  PROG_Prg.o [1]
    .text              ro code       0x525e    0x34  Csm.o [1]
    .text              ro code       0x5294    0xb6  Mcu_IPW.o [1]
    .text              ro code       0x534c   0x1d0  Port_Port_Ci.o [1]
    .text              ro code       0x551c   0x210  PROG_Cust_AppliCheck.o [1]
    .text              ro code       0x572c    0x84  SchM.o [1]
    .text              ro code       0x57b0    0xe0  Spi_IPW.o [1]
    .text              ro code       0x5890    0x6e  BlPduR_Cbk.o [1]
    .text              ro code       0x5900  0x102c  UDS_Prg.o [1]
    .text              ro code       0x692c   0x2c8  FLASH_Prg.o [1]
    .text              ro code       0x6bf4   0x114  SA_Prg.o [1]
    .text              ro code       0x6d08    0x48  PduR_AdjLayerApi.o [1]
    .text              ro code       0x6d50   0x108  CanTp_MainFunction.o [1]
    .text              ro code       0x6e58    0x4e  TSMem.o [1]
    .text              ro code       0x6ea8   0x4bc  PROG_Cbk.o [1]
    .text              ro code       0x7364    0x92  PROG_Mem.o [1]
    .text              ro code       0x73f8   0x1bc  PROG_Cry.o [1]
    .text              ro code       0x75b4   0x29c  PROG_Hsm.o [1]
    .text              ro code       0x7850    0x14  PROG_Responses.o [1]
    .text              ro code       0x7864   0x2ec  PROG_Decomp.o [1]
    .text              ro code       0x7b50   0x198  PROG_Encrypt.o [1]
    .text              ro code       0x7ce8    0x58  PROG_Cust_Crc.o [1]
    .text              ro code       0x7d40    0x18  ABImemcpy_small.o [2]
    .text              ro code       0x7d58    0xfc  Csm_Hash.o [1]
    .text              ro code       0x7e54   0x104  Csm_SignatureVerify.o [1]
    .text              ro code       0x7f58   0x100  Csm_SymBlockDecrypt.o [1]
    .text              ro code       0x8058   0x104  Csm_SymDecrypt.o [1]
    .text              ro code       0x815c    0x8c  Mcu_SIM.o [1]
    .text              ro code       0x81e8    0x20  Mcu_RCM.o [1]
    .text              ro code       0x8208    0x2c  Mcu_PMC.o [1]
    .text              ro code       0x8234    0x10  Mcu_SMC.o [1]
    .text              ro code       0x8244   0x158  Mcu_SCG.o [1]
    .text              ro code       0x839c    0x40  Mcu_PCC.o [1]
    .text              ro code       0x83dc     0x2  Watchdog.o [1]
    .text              ro code       0x83e0   0xc18  Spi_LPspi.o [1]
    .text              ro code       0x8ff8    0x90  CanSM_RequestComMode.o [1]
    .text              ro code       0x9088    0x14  PduR_Init.o [1]
    .text              ro code       0x909c    0x78  Can.o [1]
    .text              ro code       0x9114   0x44c  CanIf.o [1]
    .text              ro code       0x9560   0x128  CanTp_Init.o [1]
    .text              ro code       0x9688    0x24  CanSM_Init.o [1]
    .text              ro code       0x96ac     0x6  ABImemclr4.o [2]
    .text              ro code       0x96b4   0x230  UDS_Cbk.o [1]
    .text              ro code       0x98e4    0x74  FLASH_LLD.o [1]
    .text              ro code       0x9958    0x3a  ABImemset48.o [2]
    .text              ro code       0x9994    0x54  SA_Cbk.o [1]
    .text              ro code       0x99e8    0x44  PduR_GenericTpTransmit.o [1]
    .text              ro code       0x9a2c    0x48  PduR_GenericTpChangeParameter.o [1]
    .text              ro code       0x9a74    0x48  PduR_GenericTpStartOfReception.o [1]
    .text              ro code       0x9abc    0x48  PduR_GenericTpCopyRxData.o [1]
    .text              ro code       0x9b04    0x40  PduR_GenericTpCopyTxData.o [1]
    .text              ro code       0x9b44    0x44  PduR_GenericTpRxIndication.o [1]
    .text              ro code       0x9b88    0x44  PduR_GenericTpTxConfirmation.o [1]
    .text              ro code       0x9bcc    0x7a  CanTp_STminCallback.o [1]
    .text              ro code       0x9c48    0x78  CanTp_StopChannel.o [1]
    .text              ro code       0x9cc0   0x172  CanTp_RxBufferDependentSend.o [1]
    .text              ro code       0x9e34   0x13c  CanTp_TxBufferDependentSend.o [1]
    .text              ro code       0x9f70    0x78  CanTp_UnlockChannel.o [1]
    .text              ro code       0x9fe8    0x40  Cal_Decompress.o [1]
    .text              ro code       0xa028   0x52c  CanSM_StateMachine.o [1]
    .text              ro code       0xa554  0x13b8  Can_Flexcan.o [1]
    .text              ro code       0xb90c    0x1c  CanSM_Cbk.o [1]
    .text              ro code       0xb928    0xc4  FLS_S32K14X.o [1]
    .text              ro code       0xb9ec   0x154  CanTp_PrepareFC.o [1]
    .text              ro code       0xbb40   0x106  CanTp_PreparexF.o [1]
    .text              ro code       0xbc48    0x6c  CanTp_TransmitFrame.o [1]
    .text              ro code       0xbcb4   0x258  CanTp_TxConfirmation.o [1]
    .text              ro code       0xbf0c   0x780  CanTp_RxIndication.o [1]
    .text              ro code       0xc68c     0x2  ComM.o [1]
    .text              ro code       0xc68e     0x2  CanSM_ALV.o [1]
    .text              ro code       0xc690     0x6  ABImemclr.o [2]
    .text              ro code       0xc698    0x12  ABImemset_small.o [2]
    .text              ro code       0xc6ac    0x1c  Arm_FaultHandlerThumb_isr.o [1]
    .text              ro code       0xc6c8    0x56  board_irq.o [1]
    .text              ro code       0xc720   0x120  Can_Irq.o [1]
    .text              ro code       0xc840    0x5c  CanTp_ChangeParameter.o [1]
    .text              ro code       0xc89c    0xc8  CanTp_Transmit.o [1]
    .text              ro code       0xc964   0x1a8  Cry_AES_Common.o [1]
    .text              ro code       0xcb0c   0x46c  Cry_AES_Decrypt.o [1]
    .text              ro code       0xcf78    0x32  Cry_Common.o [1]
    .text              ro code       0xcfac   0x150  Cry_Base64.o [1]
    .text              ro code       0xd0fc   0x2ec  Cry_CbcPkcs7Decrypt.o [1]
    .text              ro code       0xd3e8   0x61c  Cry_LN.o [1]
    .text              ro code       0xda04   0x5da  Cry_RsaSsaPssVerify.o [1]
    .text              ro code       0xdfe0   0x2b0  Cry_SHA_Common.o [1]
    .text              ro code       0xe290   0xb34  Cry_SHA2.o [1]
    .text              ro code       0xedc4    0x82  PROG_Cust_Init.o [1]
    .text              ro code       0xee48   0x21e  PROG_HsmPROGFnct.o [1]
    .text              ro code       0xf066    0xa8  Cpl_Common.o [1]
    .text              ro code       0xf10e   0x2d6  Cpl_LZSSDecompress.o [1]
  rodata                             0xf400  0x2c51  <Block>
    .rodata            const         0xf400    0x10  BlPduR_Cfg.o [1]
    .rodata            const         0xf410    0x14  Cal_Decompress_Cfg.o [1]
    .rodata            const         0xf424     0x4  Can_Cfg.o [1]
    .rodata            const         0xf428    0x14  Can_Cfg.o [1]
    .rodata            const         0xf43c     0xc  Can_Cfg.o [1]
    .rodata            const         0xf448     0x8  Can_Flexcan.o [1]
    .rodata            const         0xf450     0x8  Can_Flexcan.o [1]
    .rodata            const         0xf458     0xc  Can_Flexcan.o [1]
    .rodata            const         0xf464    0x18  Can_Flexcan.o [1]
    .rodata            const         0xf47c     0x4  Can_PBcfg.o [1]
    .rodata            const         0xf480    0x54  Can_PBcfg.o [1]
    .rodata            const         0xf4d4    0x2c  Can_PBcfg.o [1]
    .rodata            const         0xf500    0x10  Can_PBcfg.o [1]
    .rodata            const         0xf510    0x14  Can_PBcfg.o [1]
    .rodata            const         0xf524     0x8  CanIf_Cfg.o [1]
    .rodata            const         0xf52c   0x150  CanIf_PBCfg.o [1]
    .rodata            const         0xf67c   0x1f4  CanTp_PBCfg.o [1]
    .rodata            const         0xf870     0x8  Cpl_LZSSDecompress_Cfg.o [1]
    .rodata            const         0xf878   0x100  Cry_AES_Common.o [1]
    .rodata            const         0xf978   0x100  Cry_AES_Common.o [1]
    .rodata            const         0xfa78   0x100  Cry_AES_Common.o [1]
    .rodata            const         0xfb78   0x100  Cry_AES_Common.o [1]
    .rodata            const         0xfc78   0x100  Cry_AES_Common.o [1]
    .rodata            const         0xfd78   0x100  Cry_Base64.o [1]
    .rodata            const         0xfe78     0x8  Cry_RsaSsaPssVerify.o [1]
    .rodata            const         0xfe80     0x8  Cry_RsaSsaPssVerifyConfig.o [1]
    .rodata            const         0xfe88   0x100  Cry_SHA2.o [1]
    .rodata            const         0xff88    0x10  Cry_SHA2Config.o [1]
    .rodata            const         0xff98    0x10  Cry_SHA2Config.o [1]
    .rodata            const         0xffa8    0x20  Csm_HashCfg.o [1]
    .rodata            const         0xffc8    0x1c  Csm_SignatureVerifyCfg.o [1]
    .rodata            const         0xffe4    0x1c  Csm_SymBlockDecryptCfg.o [1]
    .rodata            const       0x1'0000    0x1c  Csm_SymDecryptCfg.o [1]
    .rodata            const       0x1'001c     0xc  FLASH_Cfg.o [1]
    .rodata            const       0x1'0028    0x10  Mcu_PBcfg.o [1]
    .rodata            const       0x1'0038     0x8  Mcu_PBcfg.o [1]
    .rodata            const       0x1'0040     0xc  Mcu_PBcfg.o [1]
    .rodata            const       0x1'004c    0x18  Mcu_PBcfg.o [1]
    .rodata            const       0x1'0064    0x18  Mcu_PBcfg.o [1]
    .rodata            const       0x1'007c    0x18  Mcu_PBcfg.o [1]
    .rodata            const       0x1'0094    0x18  Mcu_PBcfg.o [1]
    .rodata            const       0x1'00ac    0x20  Mcu_PBcfg.o [1]
    .rodata            const       0x1'00cc   0x100  Mcu_PBcfg.o [1]
    .rodata            const       0x1'01cc     0x8  Mcu_PBcfg.o [1]
    .rodata            const       0x1'01d4    0x14  Mcu_PBcfg.o [1]
    .rodata            const       0x1'01e8     0x8  Mcu_PBcfg.o [1]
    .rodata            const       0x1'01f0    0x1c  Mcu_PBcfg.o [1]
    .rodata            const       0x1'020c     0x4  Mcu_PBcfg.o [1]
    .rodata            const       0x1'0210     0x4  Mcu_PBcfg.o [1]
    .rodata            const       0x1'0214    0x10  Mcu_PBcfg.o [1]
    .rodata            const       0x1'0224    0x1c  Mcu_PBcfg.o [1]
    .rodata            const       0x1'0240    0x38  PduR_Lcfg.o [1]
    .rodata            const       0x1'0278    0xfc  PduR_PBcfg.o [1]
    .rodata            const       0x1'0374    0x40  Port_PBcfg.o [1]
    .rodata            const       0x1'03b4     0x8  Port_PBcfg.o [1]
    .rodata            const       0x1'03bc   0x3a0  Port_PBcfg.o [1]
    .rodata            const       0x1'075c    0x18  Port_PBcfg.o [1]
    .rodata            const       0x1'0774     0x8  PROG_Cbk.o [1]
    .rodata            const       0x1'077c     0x8  PROG_Cbk.o [1]
    .rodata            const       0x1'0784   0x180  PROG_Cbk.o [1]
    .rodata            const       0x1'0904    0x10  PROG_Cfg.o [1]
    .rodata            const       0x1'0914    0x3c  PROG_Cfg.o [1]
    .rodata            const       0x1'0950    0x14  PROG_Cfg.o [1]
    .rodata            const       0x1'0964   0x400  PROG_Cust_Crc.o [1]
    .rodata            const       0x1'0d64   0x228  PROG_HsmPROGData.o [1]
    .rodata            const       0x1'0f8c    0x38  PROG_HsmPROGData.o [1]
    .rodata            const       0x1'0fc4    0x38  PROG_HsmPROGData.o [1]
    .rodata            const       0x1'0ffc    0x30  PROG_HsmPROGData.o [1]
    .rodata            const       0x1'102c     0x8  PROG_HsmPROGData.o [1]
    .rodata            const       0x1'1034     0x8  PROG_HsmPROGData.o [1]
    .rodata            const       0x1'103c    0x20  PROG_HsmPROGData.o [1]
    .rodata            const       0x1'105c    0x20  PROG_HsmPROGData.o [1]
    .rodata            const       0x1'107c    0x10  PROG_HsmPROGData.o [1]
    .rodata            const       0x1'108c    0x40  PROG_HsmPROGData.o [1]
    .rodata            const       0x1'10cc     0x8  PROG_HsmPROGData.o [1]
    .rodata            const       0x1'10d4    0x10  PROG_HsmPROGData.o [1]
    .rodata            const       0x1'10e4    0x58  PROG_HsmPROGData.o [1]
    .rodata            const       0x1'113c     0x8  PROG_HsmPROGData.o [1]
    .rodata            const       0x1'1144     0x8  PROG_HsmPROGData.o [1]
    .rodata            const       0x1'114c    0x40  PROG_HsmPROGData.o [1]
    .rodata            const       0x1'118c    0x10  PROG_HsmPROGData.o [1]
    .rodata            const       0x1'119c    0x10  PROG_HsmPROGData.o [1]
    .rodata            const       0x1'11ac    0x10  PROG_HsmPROGData.o [1]
    .rodata            const       0x1'11bc     0x8  PROG_HsmPROGData.o [1]
    .rodata            const       0x1'11c4     0x8  PROG_HsmPROGData.o [1]
    .rodata            const       0x1'11cc     0x8  PROG_HsmPROGData.o [1]
    .rodata            const       0x1'11d4    0x38  PROG_HsmPROGData.o [1]
    .rodata            const       0x1'120c     0x8  PROG_HsmPROGData.o [1]
    .rodata            const       0x1'1214    0x30  PROG_HsmPROGData.o [1]
    .rodata            const       0x1'1244    0x38  PROG_HsmPROGData.o [1]
    .rodata            const       0x1'127c    0x38  PROG_HsmPROGData.o [1]
    .rodata            const       0x1'12b4    0x28  PROG_HsmPROGData.o [1]
    .rodata            const       0x1'12dc     0x8  PROG_HsmPROGData.o [1]
    .rodata            const       0x1'12e4     0x8  PROG_HsmPROGData.o [1]
    .rodata            const       0x1'12ec     0x8  PROG_HsmPROGData.o [1]
    .rodata            const       0x1'12f4    0x10  PROG_HsmPROGData.o [1]
    .rodata            const       0x1'1304    0x20  PROG_HsmPROGData.o [1]
    .rodata            const       0x1'1324    0x10  PROG_HsmPROGData.o [1]
    .rodata            const       0x1'1334     0x8  PROG_HsmPROGData.o [1]
    .rodata            const       0x1'133c    0x10  PROG_HsmPROGData.o [1]
    .rodata            const       0x1'134c    0x10  PROG_HsmPROGData.o [1]
    .rodata            const       0x1'135c     0x8  PROG_HsmPROGData.o [1]
    .rodata            const       0x1'1364    0x10  PROG_HsmPROGData.o [1]
    .rodata            const       0x1'1374    0x18  PROG_HsmPROGData.o [1]
    .rodata            const       0x1'138c    0x18  PROG_HsmPROGData.o [1]
    .rodata            const       0x1'13a4    0x20  PROG_HsmPROGData.o [1]
    .rodata            const       0x1'13c4     0x8  PROG_HsmPROGData.o [1]
    .rodata            const       0x1'13cc    0x18  PROG_HsmPROGData.o [1]
    .rodata            const       0x1'13e4    0x20  PROG_HsmPROGData.o [1]
    .rodata            const       0x1'1404     0x8  PROG_HsmPROGData.o [1]
    .rodata            const       0x1'140c    0x10  PROG_HsmPROGData.o [1]
    .rodata            const       0x1'141c    0x10  PROG_HsmPROGData.o [1]
    .rodata            const       0x1'142c     0x8  PROG_HsmPROGData.o [1]
    .rodata            const       0x1'1434     0x8  PROG_HsmPROGData.o [1]
    .rodata            const       0x1'143c    0x18  PROG_HsmPROGData.o [1]
    .rodata            const       0x1'1454    0x48  PROG_HsmPROGData.o [1]
    .rodata            const       0x1'149c    0x18  PROG_HsmPROGData.o [1]
    .rodata            const       0x1'14b4     0x8  PROG_HsmPROGData.o [1]
    .rodata            const       0x1'14bc    0x38  PROG_HsmPROGData.o [1]
    .rodata            const       0x1'14f4    0x18  PROG_HsmPROGData.o [1]
    .rodata            const       0x1'150c     0x8  PROG_HsmPROGData.o [1]
    .rodata            const       0x1'1514    0x10  PROG_HsmPROGData.o [1]
    .rodata            const       0x1'1524   0x4c4  PROG_HsmPROGData.o [1]
    .rodata            const       0x1'19e8    0x1c  PROG_HsmPROGData.o [1]
    .rodata            const       0x1'1a04    0x34  Spi_LPspi.o [1]
    .rodata            const       0x1'1a38    0x3c  Spi_PBcfg.o [1]
    .rodata            const       0x1'1a74    0x78  Spi_PBcfg.o [1]
    .rodata            const       0x1'1aec    0x30  Spi_PBcfg.o [1]
    .rodata            const       0x1'1b1c    0x24  Spi_PBcfg.o [1]
    .rodata            const       0x1'1b40    0x10  Spi_PBcfg.o [1]
    .rodata            const       0x1'1b50     0xc  Spi_PBcfg.o [1]
    .rodata            const       0x1'1b5c    0x1c  Spi_PBcfg.o [1]
    .rodata            const       0x1'1b78     0xc  UDS_Cbk.o [1]
    .rodata            const       0x1'1b84     0x8  UDS_Cbk.o [1]
    .rodata            const       0x1'1b8c    0x18  UDS_Cbk.o [1]
    .rodata            const       0x1'1ba4     0xc  UDS_Cbk.o [1]
    .rodata            const       0x1'1bb0    0x1c  UDS_Cbk.o [1]
    .rodata            const       0x1'1bcc     0x8  UDS_Cbk.o [1]
    .rodata            const       0x1'1bd4     0x4  UDS_Cbk.o [1]
    .rodata            const       0x1'1bd8    0x14  UDS_Cbk.o [1]
    .rodata            const       0x1'1bec    0x18  UDS_Cbk.o [1]
    .rodata            const       0x1'1c04     0x8  UDS_Cbk.o [1]
    .rodata            const       0x1'1c0c    0x10  UDS_Cbk.o [1]
    .rodata            const       0x1'1c1c    0xa8  UDS_Cfg.o [1]
    .rodata            const       0x1'1cc4   0x220  UDS_Cfg.o [1]
    .rodata            const       0x1'1ee4    0x60  UDS_Cfg.o [1]
    .rodata            const       0x1'1f44    0x50  UDS_Cfg.o [1]
    .rodata            const       0x1'1f94     0x2  Cry_CbcPkcs7DecryptConfig.o [1]
    .rodata            const       0x1'1f96     0x2  PROG_HsmPROGData.o [1]
    .rodata            const       0x1'1f98     0x2  PROG_HsmPROGData.o [1]
    .rodata            const       0x1'1f9a     0x2  PROG_HsmPROGData.o [1]
    .rodata            const       0x1'1f9c     0x2  PROG_HsmPROGData.o [1]
    .rodata            const       0x1'1f9e     0x2  PROG_HsmPROGData.o [1]
    .rodata            const       0x1'1fa0     0x2  PROG_HsmPROGData.o [1]
    .rodata            const       0x1'1fa2     0x2  PROG_HsmPROGData.o [1]
    .rodata            const       0x1'1fa4     0x2  Spi_PBcfg.o [1]
    .rodata            const       0x1'1fa6     0x2  Spi_PBcfg.o [1]
    .rodata            const       0x1'1fa8     0x2  Spi_PBcfg.o [1]
    .rodata            const       0x1'1faa     0x2  SpiIf.o [1]
    .rodata            const       0x1'1fac     0x2  SpiIf.o [1]
    .rodata            const       0x1'1fae     0x2  SpiIf.o [1]
    .rodata            const       0x1'1fb0     0x2  SpiIf.o [1]
    .rodata            const       0x1'1fb2     0x2  SpiIf.o [1]
    .rodata            const       0x1'1fb4     0x2  SpiIf.o [1]
    .rodata            const       0x1'1fb6     0x2  SpiIf.o [1]
    .rodata            const       0x1'1fb8     0x2  SpiIf.o [1]
    .rodata            const       0x1'1fba     0x2  SpiIf.o [1]
    .rodata            const       0x1'1fbc     0x2  SpiIf.o [1]
    .rodata            const       0x1'1fbe     0x2  SpiIf.o [1]
    .rodata            const       0x1'1fc0     0x2  SpiIf.o [1]
    .rodata            const       0x1'1fc2     0x2  SpiIf.o [1]
    .rodata            const       0x1'1fc4     0x2  SpiIf.o [1]
    .rodata            const       0x1'1fc6     0x2  SpiIf.o [1]
    .rodata            const       0x1'1fc8     0x2  SpiIf.o [1]
    .rodata            const       0x1'1fca     0x2  SpiIf.o [1]
    .rodata            const       0x1'1fcc     0x2  SpiIf.o [1]
    .rodata            const       0x1'1fce     0x1  CanSM_Cfg.o [1]
    .rodata            const       0x1'1fcf     0x1  Cry_AES_DecryptConfig.o [1]
    .rodata            const       0x1'1fd0     0x1  PduR_Lcfg.o [1]
    .rodata            const       0x1'1fd1     0x1  PduR_Lcfg.o [1]
    .rodata            const       0x1'1fd2     0x1  PROG_HsmPROGData.o [1]
    .rodata            const       0x1'1fd3     0x1  PROG_HsmPROGData.o [1]
    .rodata            const       0x1'1fd4     0x1  PROG_HsmPROGData.o [1]
    .rodata            const       0x1'1fd5     0x1  PROG_HsmPROGData.o [1]
    .rodata            const       0x1'1fd6     0x1  PROG_HsmPROGData.o [1]
    .rodata            const       0x1'1fd7     0x1  PROG_HsmPROGData.o [1]
    .rodata            const       0x1'1fd8     0x1  PROG_HsmPROGData.o [1]
    .rodata            const       0x1'1fd9     0x1  PROG_HsmPROGData.o [1]
    .rodata            const       0x1'1fda     0x1  PROG_HsmPROGData.o [1]
    .rodata            const       0x1'1fdb     0x1  PROG_HsmPROGData.o [1]
    .rodata            const       0x1'1fdc     0x1  PROG_HsmPROGData.o [1]
    .rodata            const       0x1'1fdd     0x1  PROG_HsmPROGData.o [1]
    .rodata            const       0x1'1fde     0x1  PROG_HsmPROGData.o [1]
    .rodata            const       0x1'1fdf     0x1  PROG_HsmPROGData.o [1]
    .rodata            const       0x1'1fe0     0x1  PROG_HsmPROGData.o [1]
    .rodata            const       0x1'1fe1     0x1  PROG_HsmPROGData.o [1]
    .rodata            const       0x1'1fe2     0x1  PROG_HsmPROGData.o [1]
    .rodata            const       0x1'1fe3     0x1  PROG_HsmPROGData.o [1]
    .rodata            const       0x1'1fe4     0x1  PROG_HsmPROGData.o [1]
    .rodata            const       0x1'1fe5     0x1  PROG_HsmPROGData.o [1]
    .rodata            const       0x1'1fe6     0x1  PROG_HsmPROGData.o [1]
    .rodata            const       0x1'1fe7     0x1  PROG_HsmPROGData.o [1]
    .rodata            const       0x1'1fe8     0x1  PROG_HsmPROGData.o [1]
    .rodata            const       0x1'1fe9     0x1  PROG_HsmPROGData.o [1]
    .rodata            const       0x1'1fea     0x1  PROG_HsmPROGData.o [1]
    .rodata            const       0x1'1feb     0x1  PROG_HsmPROGData.o [1]
    .rodata            const       0x1'1fec     0x1  PROG_HsmPROGData.o [1]
    .rodata            const       0x1'1fed     0x1  PROG_HsmPROGData.o [1]
    .rodata            const       0x1'1fee     0x1  PROG_HsmPROGData.o [1]
    .rodata            const       0x1'1fef     0x1  PROG_HsmPROGData.o [1]
    .rodata            const       0x1'1ff0     0x1  PROG_HsmPROGData.o [1]
    .rodata            const       0x1'1ff1     0x1  PROG_HsmPROGData.o [1]
    .rodata            const       0x1'1ff2     0x1  PROG_HsmPROGData.o [1]
    .rodata            const       0x1'1ff3     0x1  PROG_HsmPROGData.o [1]
    .rodata            const       0x1'1ff4     0x1  PROG_HsmPROGData.o [1]
    .rodata            const       0x1'1ff5     0x1  PROG_HsmPROGData.o [1]
    .rodata            const       0x1'1ff6     0x1  PROG_HsmPROGData.o [1]
    .rodata            const       0x1'1ff7     0x1  PROG_HsmPROGData.o [1]
    .rodata            const       0x1'1ff8     0x1  PROG_HsmPROGData.o [1]
    .rodata            const       0x1'1ff9     0x1  PROG_HsmPROGData.o [1]
    .rodata            const       0x1'1ffa     0x1  PROG_HsmPROGData.o [1]
    .rodata            const       0x1'1ffb     0x1  PROG_HsmPROGData.o [1]
    .rodata            const       0x1'1ffc     0x1  PROG_HsmPROGData.o [1]
    .rodata            const       0x1'1ffd     0x1  PROG_HsmPROGData.o [1]
    .rodata            const       0x1'1ffe     0x1  PROG_HsmPROGData.o [1]
    .rodata            const       0x1'1fff     0x1  PROG_HsmPROGData.o [1]
    .rodata            const       0x1'2000     0x1  PROG_HsmPROGData.o [1]
    .rodata            const       0x1'2001     0x1  PROG_HsmPROGData.o [1]
    .rodata            const       0x1'2002     0x1  PROG_HsmPROGData.o [1]
    .rodata            const       0x1'2003     0x1  PROG_HsmPROGData.o [1]
    .rodata            const       0x1'2004     0x1  PROG_HsmPROGData.o [1]
    .rodata            const       0x1'2005     0x1  PROG_HsmPROGData.o [1]
    .rodata            const       0x1'2006     0x1  PROG_HsmPROGData.o [1]
    .rodata            const       0x1'2007     0x1  PROG_HsmPROGData.o [1]
    .rodata            const       0x1'2008     0x1  PROG_HsmPROGData.o [1]
    .rodata            const       0x1'2009     0x1  PROG_HsmPROGData.o [1]
    .rodata            const       0x1'200a     0x1  PROG_HsmPROGData.o [1]
    .rodata            const       0x1'200b     0x1  PROG_HsmPROGData.o [1]
    .rodata            const       0x1'200c     0x1  PROG_HsmPROGData.o [1]
    .rodata            const       0x1'200d     0x1  PROG_HsmPROGData.o [1]
    .rodata            const       0x1'200e     0x1  PROG_HsmPROGData.o [1]
    .rodata            const       0x1'200f     0x1  PROG_HsmPROGData.o [1]
    .rodata            const       0x1'2010     0x1  PROG_HsmPROGData.o [1]
    .rodata            const       0x1'2011     0x1  PROG_HsmPROGData.o [1]
    .rodata            const       0x1'2012     0x1  PROG_HsmPROGData.o [1]
    .rodata            const       0x1'2013     0x1  PROG_HsmPROGData.o [1]
    .rodata            const       0x1'2014     0x1  PROG_HsmPROGData.o [1]
    .rodata            const       0x1'2015     0x1  PROG_HsmPROGData.o [1]
    .rodata            const       0x1'2016     0x1  PROG_HsmPROGData.o [1]
    .rodata            const       0x1'2017     0x1  PROG_HsmPROGData.o [1]
    .rodata            const       0x1'2018     0x1  PROG_HsmPROGData.o [1]
    .rodata            const       0x1'2019     0x1  PROG_HsmPROGData.o [1]
    .rodata            const       0x1'201a     0x1  PROG_HsmPROGData.o [1]
    .rodata            const       0x1'201b     0x1  PROG_HsmPROGData.o [1]
    .rodata            const       0x1'201c     0x1  PROG_HsmPROGData.o [1]
    .rodata            const       0x1'201d     0x1  PROG_HsmPROGData.o [1]
    .rodata            const       0x1'201e     0x1  PROG_HsmPROGData.o [1]
    .rodata            const       0x1'201f     0x1  PROG_HsmPROGData.o [1]
    .rodata            const       0x1'2020     0x1  PROG_HsmPROGData.o [1]
    .rodata            const       0x1'2021     0x1  PROG_HsmPROGData.o [1]
    .rodata            const       0x1'2022     0x1  PROG_HsmPROGData.o [1]
    .rodata            const       0x1'2023     0x1  PROG_HsmPROGData.o [1]
    .rodata            const       0x1'2024     0x1  PROG_HsmPROGData.o [1]
    .rodata            const       0x1'2025     0x1  PROG_HsmPROGData.o [1]
    .rodata            const       0x1'2026     0x1  PROG_HsmPROGData.o [1]
    .rodata            const       0x1'2027     0x1  PROG_HsmPROGData.o [1]
    .rodata            const       0x1'2028     0x1  PROG_HsmPROGData.o [1]
    .rodata            const       0x1'2029     0x1  PROG_HsmPROGData.o [1]
    .rodata            const       0x1'202a     0x1  PROG_HsmPROGData.o [1]
    .rodata            const       0x1'202b     0x1  PROG_HsmPROGData.o [1]
    .rodata            const       0x1'202c     0x1  PROG_HsmPROGData.o [1]
    .rodata            const       0x1'202d     0x1  PROG_HsmPROGData.o [1]
    .rodata            const       0x1'202e     0x1  PROG_HsmPROGData.o [1]
    .rodata            const       0x1'202f     0x1  PROG_HsmPROGData.o [1]
    .rodata            const       0x1'2030     0x1  PROG_HsmPROGData.o [1]
    .rodata            const       0x1'2031     0x1  PROG_HsmPROGData.o [1]
    .rodata            const       0x1'2032     0x1  PROG_HsmPROGData.o [1]
    .rodata            const       0x1'2033     0x1  PROG_HsmPROGData.o [1]
    .rodata            const       0x1'2034     0x1  PROG_HsmPROGData.o [1]
    .rodata            const       0x1'2035     0x1  PROG_HsmPROGData.o [1]
    .rodata            const       0x1'2036     0x1  PROG_HsmPROGData.o [1]
    .rodata            const       0x1'2037     0x1  PROG_HsmPROGData.o [1]
    .rodata            const       0x1'2038     0x1  PROG_HsmPROGData.o [1]
    .rodata            const       0x1'2039     0x1  PROG_HsmPROGData.o [1]
    .rodata            const       0x1'203a     0x1  PROG_HsmPROGData.o [1]
    .rodata            const       0x1'203b     0x1  PROG_HsmPROGData.o [1]
    .rodata            const       0x1'203c     0x1  PROG_HsmPROGData.o [1]
    .rodata            const       0x1'203d     0x1  PROG_HsmPROGData.o [1]
    .rodata            const       0x1'203e     0x1  PROG_HsmPROGData.o [1]
    .rodata            const       0x1'203f     0x1  PROG_HsmPROGData.o [1]
    .rodata            const       0x1'2040     0x1  PROG_HsmPROGData.o [1]
    .rodata            const       0x1'2041     0x1  PROG_HsmPROGData.o [1]
    .rodata            const       0x1'2042     0x1  PROG_HsmPROGData.o [1]
    .rodata            const       0x1'2043     0x1  PROG_HsmPROGData.o [1]
    .rodata            const       0x1'2044     0x1  PROG_HsmPROGData.o [1]
    .rodata            const       0x1'2045     0x1  PROG_HsmPROGData.o [1]
    .rodata            const       0x1'2046     0x1  PROG_HsmPROGData.o [1]
    .rodata            const       0x1'2047     0x1  PROG_HsmPROGData.o [1]
    .rodata            const       0x1'2048     0x1  PROG_HsmPROGData.o [1]
    .rodata            const       0x1'2049     0x1  PROG_HsmPROGData.o [1]
    .rodata            const       0x1'204a     0x1  PROG_HsmPROGData.o [1]
    .rodata            const       0x1'204b     0x1  PROG_HsmPROGData.o [1]
    .rodata            const       0x1'204c     0x1  PROG_HsmPROGData.o [1]
    .rodata            const       0x1'204d     0x1  PROG_HsmPROGData.o [1]
    .rodata            const       0x1'204e     0x1  Spi_PBcfg.o [1]
    .rodata            const       0x1'204f     0x1  Spi_PBcfg.o [1]
    .rodata            const       0x1'2050     0x1  Spi_PBcfg.o [1]
  DATA_init                        0x1'2060    0xd8  <Block>
    Initializer bytes  const       0x1'2060    0xd8  <for section .data-1>
                                 - 0x1'2138  0xfe38

"P7":                                        0x9638
  group_DATABSS                 0x1fff'9200  0x9638  <Block>
    BSS                         0x1fff'9200  0x955f  <Block>
      .stack           uninit   0x1fff'9200   0x800  board_reset_vector.o [1]
      .bss             uninit   0x1fff'9a00  0x1000  BlPduR_Cfg.o [1]
      .bss             uninit   0x1fff'aa00     0xc  BlPduR_Cfg.o [1]
      .bss             uninit   0x1fff'aa0c     0x8  BlPduR_Prg.o [1]
      .bss             uninit   0x1fff'aa14     0xc  BlPduR_Prg.o [1]
      .bss             uninit   0x1fff'aa20     0x4  BlPduR_Prg.o [1]
      .bss             uninit   0x1fff'aa24     0xc  BlPduR_Prg.o [1]
      .bss             uninit   0x1fff'aa30     0xc  BlPduR_Prg.o [1]
      .bss             uninit   0x1fff'aa3c     0x4  BlPduR_Prg.o [1]
      .bss             uninit   0x1fff'aa40     0x8  BlPduR_Prg.o [1]
      .bss             uninit   0x1fff'aa48     0x4  Can.o [1]
      .bss             uninit   0x1fff'aa4c     0x4  Can.o [1]
      .bss             uninit   0x1fff'aa50     0x4  Can.o [1]
      .bss             uninit   0x1fff'aa54    0x9c  Can_Flexcan.o [1]
      .bss             uninit   0x1fff'aaf0     0x4  Can_Flexcan.o [1]
      .bss             uninit   0x1fff'aaf4     0x4  CanIf.o [1]
      .bss             uninit   0x1fff'aaf8     0x4  CanIf.o [1]
      .bss             uninit   0x1fff'aafc     0x4  CanIf.o [1]
      .bss             uninit   0x1fff'ab00     0x4  CanIf.o [1]
      .bss             uninit   0x1fff'ab04     0x4  CanIf_Cfg.o [1]
      .bss             uninit   0x1fff'ab08     0x4  CanIf_Cfg.o [1]
      .bss             uninit   0x1fff'ab0c     0xc  CanSM_Cfg.o [1]
      .bss             uninit   0x1fff'ab18     0x8  CanTp_Cfg.o [1]
      .bss             uninit   0x1fff'ab20     0x8  CanTp_Cfg.o [1]
      .bss             uninit   0x1fff'ab28   0x300  CanTp_Cfg.o [1]
      .bss             uninit   0x1fff'ae28     0x4  CanTp_Init.o [1]
      .bss             uninit   0x1fff'ae2c   0x150  Cry_AES_Decrypt.o [1]
      .bss             uninit   0x1fff'af7c    0x54  Cry_CbcPkcs7Decrypt.o [1]
      .bss             uninit   0x1fff'afd0   0x848  Cry_RsaSsaPssVerify.o [1]
      .bss             uninit   0x1fff'b818   0x1f8  Cry_SHA2.o [1]
      .bss             uninit   0x1fff'ba10     0x4  FLASH_Prg.o [1]
      .bss             uninit   0x1fff'ba14     0x4  FLASH_Prg.o [1]
      .bss             uninit   0x1fff'ba18    0x1c  FLS_S32K14X.o [1]
      .bss             uninit   0x1fff'ba34     0x8  FLS_S32K14X.o [1]
      .bss             uninit   0x1fff'ba3c     0xc  FLS_S32K14X.o [1]
      .bss             uninit   0x1fff'ba48     0x4  PduR.o [1]
      .bss             uninit   0x1fff'ba4c     0xc  PROG_Cbk.o [1]
      .bss             uninit   0x1fff'ba58    0x9c  PROG_Cbk.o [1]
      .bss             uninit   0x1fff'baf4     0x4  PROG_Cry.o [1]
      .bss             uninit   0x1fff'baf8  0x5000  PROG_Decomp.o [1]
      .bss             uninit   0x2000'0af8    0x10  PROG_Decomp.o [1]
      .bss             uninit   0x2000'0b08   0x414  PROG_Decomp.o [1]
      .bss             uninit   0x2000'0f1c     0x4  PROG_Decomp.o [1]
      .bss             uninit   0x2000'0f20    0x14  PROG_Encrypt.o [1]
      .bss             uninit   0x2000'0f34     0x4  PROG_Encrypt.o [1]
      .bss             uninit   0x2000'0f38     0x4  PROG_Encrypt.o [1]
      .bss             uninit   0x2000'0f3c    0x20  PROG_HsmPROGData.o [1]
      .bss             uninit   0x2000'0f5c    0x20  PROG_HsmPROGData.o [1]
      .bss             uninit   0x2000'0f7c     0x4  PROG_HsmPROGData.o [1]
      .bss             uninit   0x2000'0f80     0xc  PROG_Prg.o [1]
      .bss             uninit   0x2000'0f8c     0xc  PROG_Prg.o [1]
      .bss             uninit   0x2000'0f98    0x10  PROG_Prg.o [1]
      .bss             uninit   0x2000'0fa8   0x180  PROG_Prg.o [1]
      .bss             uninit   0x2000'1128    0x10  PROG_Prg.o [1]
      .bss             uninit   0x2000'1138    0x1c  PROG_Prg.o [1]
      .bss             uninit   0x2000'1154     0xc  PROG_Prg.o [1]
      .bss             uninit   0x2000'1160     0xc  PROG_Prg.o [1]
      .bss             uninit   0x2000'116c  0x1024  PROG_Prg.o [1]
      .bss             uninit   0x2000'2190     0x8  PROG_Prg.o [1]
      .bss             uninit   0x2000'2198    0x14  PROG_Prg.o [1]
      .bss             uninit   0x2000'21ac     0x4  PROG_Prg.o [1]
      .bss             uninit   0x2000'21b0    0x20  PROG_Prg.o [1]
      .bss             uninit   0x2000'21d0     0x4  PROG_Prg.o [1]
      .bss             uninit   0x2000'21d4     0x4  PROG_Prg.o [1]
      .bss             uninit   0x2000'21d8   0x310  PROG_Prg.o [1]
      .bss             uninit   0x2000'24e8     0x4  SA_Prg.o [1]
      .bss             uninit   0x2000'24ec     0xc  SA_Prg.o [1]
      .bss             uninit   0x2000'24f8    0x14  Spi.o [1]
      .bss             uninit   0x2000'250c    0x30  Spi.o [1]
      .bss             uninit   0x2000'253c    0x24  Spi.o [1]
      .bss             uninit   0x2000'2560     0xc  Spi.o [1]
      .bss             uninit   0x2000'256c     0xc  Spi.o [1]
      .bss             uninit   0x2000'2578    0x54  Spi_LPspi.o [1]
      .bss             uninit   0x2000'25cc    0x3c  Spi_LPspi.o [1]
      .bss             uninit   0x2000'2608    0x30  Spi_LPspi.o [1]
      .bss             uninit   0x2000'2638     0x4  Spi_LPspi.o [1]
      .bss             uninit   0x2000'263c    0x64  Spi_LPspi.o [1]
      .bss             uninit   0x2000'26a0     0x2  Spi_PBcfg.o [1]
      .bss             uninit   0x2000'26a2     0x2  BlPduR_Prg.o [1]
      .bss             uninit   0x2000'26a4     0x2  Spi_PBcfg.o [1]
      .bss             uninit   0x2000'26a6     0x2  BlPduR_Prg.o [1]
      .bss             uninit   0x2000'26a8     0x2  Spi_PBcfg.o [1]
      .bss             uninit   0x2000'26aa     0x2  Csm_Hash.o [1]
      .bss             uninit   0x2000'26ac     0x2  Spi_PBcfg.o [1]
      .bss             uninit   0x2000'26ae     0x2  Csm_SignatureVerify.o [1]
      .bss             uninit   0x2000'26b0     0x2  Spi_PBcfg.o [1]
      .bss             uninit   0x2000'26b2     0x2  Csm_SymBlockDecrypt.o [1]
      .bss             uninit   0x2000'26b4     0x2  Spi_PBcfg.o [1]
      .bss             uninit   0x2000'26b6     0x2  Csm_SymDecrypt.o [1]
      .bss             uninit   0x2000'26b8     0x4  Spi_PBcfg.o [1]
      .bss             uninit   0x2000'26bc    0x44  UDS_Cbk.o [1]
      .bss             uninit   0x2000'2700    0x10  UDS_Prg.o [1]
      .bss             uninit   0x2000'2710     0x2  FLASH_Prg.o [1]
      .bss             uninit   0x2000'2712     0x2  FLASH_Prg.o [1]
      .bss             uninit   0x2000'2714     0x2  FLASH_Prg.o [1]
      .bss             uninit   0x2000'2716     0x2  FLASH_Prg.o [1]
      .bss             uninit   0x2000'2718     0x2  FLASH_Prg.o [1]
      .bss             uninit   0x2000'271a     0x2  PROG_Prg.o [1]
      .bss             uninit   0x2000'271c     0x2  UDS_Prg.o [1]
      .bss             uninit   0x2000'271e     0x2  UDS_Prg.o [1]
      .bss             uninit   0x2000'2720     0x2  UDS_Prg.o [1]
      .bss             uninit   0x2000'2722     0x2  UDS_Prg.o [1]
      .bss             uninit   0x2000'2724     0x2  UDS_Prg.o [1]
      .bss             uninit   0x2000'2726     0x1  BlPduR_Prg.o [1]
      .bss             uninit   0x2000'2727     0x1  BlPduR_Prg.o [1]
      .bss             uninit   0x2000'2728     0x1  BlPduR_Prg.o [1]
      .bss             uninit   0x2000'2729     0x1  BlPduR_Prg.o [1]
      .bss             uninit   0x2000'272a     0x1  BlPduR_Prg.o [1]
      .bss             uninit   0x2000'272b     0x1  BlPduR_Prg.o [1]
      .bss             uninit   0x2000'272c     0x1  board.o [1]
      .bss             uninit   0x2000'272d     0x1  Can.o [1]
      .bss             uninit   0x2000'272e     0x1  CanIf.o [1]
      .bss             uninit   0x2000'272f     0x1  CanSM.o [1]
      .bss             uninit   0x2000'2730     0x1  CanSM.o [1]
      .bss             uninit   0x2000'2731     0x1  CanSM_Cfg.o [1]
      .bss             uninit   0x2000'2732     0x1  CanTp_Cfg.o [1]
      .bss             uninit   0x2000'2733     0x1  CanTp_Cfg.o [1]
      .bss             uninit   0x2000'2734     0x1  Csm_Hash.o [1]
      .bss             uninit   0x2000'2735     0x1  Csm_SignatureVerify.o [1]
      .bss             uninit   0x2000'2736     0x1  Csm_SymBlockDecrypt.o [1]
      .bss             uninit   0x2000'2737     0x1  Csm_SymDecrypt.o [1]
      .bss             uninit   0x2000'2738     0x1  FLASH_Prg.o [1]
      .bss             uninit   0x2000'2739     0x1  Mcu.o [1]
      .bss             uninit   0x2000'273a     0x1  Mcu.o [1]
      .bss             uninit   0x2000'273b     0x1  Mcu.o [1]
      .bss             uninit   0x2000'273c     0x1  PduR.o [1]
      .bss             uninit   0x2000'273d     0x1  PROG_Cbk.o [1]
      .bss             uninit   0x2000'273e     0x1  PROG_Cbk.o [1]
      .bss             uninit   0x2000'273f     0x1  PROG_Cry.o [1]
      .bss             uninit   0x2000'2740     0x1  PROG_Cry.o [1]
      .bss             uninit   0x2000'2741     0x1  PROG_Cry.o [1]
      .bss             uninit   0x2000'2742     0x1  PROG_Cust_AppliCheck.o [1]
      .bss             uninit   0x2000'2743     0x1  PROG_Decomp.o [1]
      .bss             uninit   0x2000'2744     0x1  PROG_Encrypt.o [1]
      .bss             uninit   0x2000'2745     0x1  PROG_Encrypt.o [1]
      .bss             uninit   0x2000'2746     0x1  PROG_Prg.o [1]
      .bss             uninit   0x2000'2747     0x1  PROG_Prg.o [1]
      .bss             uninit   0x2000'2748     0x1  PROG_Prg.o [1]
      .bss             uninit   0x2000'2749     0x1  PROG_Prg.o [1]
      .bss             uninit   0x2000'274a     0x1  PROG_Prg.o [1]
      .bss             uninit   0x2000'274b     0x1  PROG_Prg.o [1]
      .bss             uninit   0x2000'274c     0x1  PROG_Prg.o [1]
      .bss             uninit   0x2000'274d     0x1  PROG_Prg.o [1]
      .bss             uninit   0x2000'274e     0x1  PROG_Prg.o [1]
      .bss             uninit   0x2000'274f     0x1  PROG_Prg.o [1]
      .bss             uninit   0x2000'2750     0x1  PROG_Prg.o [1]
      .bss             uninit   0x2000'2751     0x1  PROG_Prg.o [1]
      .bss             uninit   0x2000'2752     0x1  PROG_Prg.o [1]
      .bss             uninit   0x2000'2753     0x1  PROG_Prg.o [1]
      .bss             uninit   0x2000'2754     0x1  PROG_Prg.o [1]
      .bss             uninit   0x2000'2755     0x1  PROG_Prg.o [1]
      .bss             uninit   0x2000'2756     0x1  PROG_Prg.o [1]
      .bss             uninit   0x2000'2757     0x1  PROG_Prg.o [1]
      .bss             uninit   0x2000'2758     0x1  SA_Prg.o [1]
      .bss             uninit   0x2000'2759     0x1  UDS_Prg.o [1]
      .bss             uninit   0x2000'275a     0x1  UDS_Prg.o [1]
      .bss             uninit   0x2000'275b     0x1  UDS_Prg.o [1]
      .bss             uninit   0x2000'275c     0x1  UDS_Prg.o [1]
      .bss             uninit   0x2000'275d     0x1  UDS_Prg.o [1]
      .bss             uninit   0x2000'275e     0x1  UDS_Prg.o [1]
    DATA                        0x2000'2760    0xd8  <Block>
      section .data-1           0x2000'2760    0xd5  <Init block>
        .data          inited   0x2000'2760    0x20  BlPduR_Cfg.o [1]
        .data          inited   0x2000'2780     0xc  BlPduR_Cfg.o [1]
        .data          inited   0x2000'278c     0xc  BlPduR_Cfg.o [1]
        .data          inited   0x2000'2798     0xc  BlPduR_Cfg.o [1]
        .data          inited   0x2000'27a4     0xc  BlPduR_Cfg.o [1]
        .data          inited   0x2000'27b0     0x4  Can.o [1]
        .data          inited   0x2000'27b4     0x4  Mcu.o [1]
        .data          inited   0x2000'27b8     0x4  Mcu_IPW.o [1]
        .data          inited   0x2000'27bc     0x4  Port.o [1]
        .data          inited   0x2000'27c0    0x10  PROG_Cbk.o [1]
        .data          inited   0x2000'27d0    0x10  PROG_Cbk.o [1]
        .data          inited   0x2000'27e0     0x4  Spi.o [1]
        .data          inited   0x2000'27e4     0x4  Spi.o [1]
        .data          inited   0x2000'27e8     0xc  Spi_LPspi.o [1]
        .data          inited   0x2000'27f4     0x8  Spi_PBcfg.o [1]
        .data          inited   0x2000'27fc     0x8  Spi_PBcfg.o [1]
        .data          inited   0x2000'2804     0x8  Spi_PBcfg.o [1]
        .data          inited   0x2000'280c     0xc  Spi_PBcfg.o [1]
        .data          inited   0x2000'2818     0x4  Spi_PBcfg.o [1]
        .data          inited   0x2000'281c     0x8  Spi_PBcfg.o [1]
        .data          inited   0x2000'2824     0x4  SpiIf.o [1]
        .data          inited   0x2000'2828     0x2  SpiIf.o [1]
        .data          inited   0x2000'282a     0x2  SpiIf.o [1]
        .data          inited   0x2000'282c     0x2  SpiIf.o [1]
        .data          inited   0x2000'282e     0x2  SpiIf.o [1]
        .data          inited   0x2000'2830     0x1  CanSM.o [1]
        .data          inited   0x2000'2831     0x1  CanSM.o [1]
        .data          inited   0x2000'2832     0x1  FLASH_Prg.o [1]
        .data          inited   0x2000'2833     0x1  PROG_Prg.o [1]
        .data          inited   0x2000'2834     0x1  SpiIf.o [1]
                              - 0x2000'2838  0x9638

"P6":                                           0xc
  noinit                        0x2000'3f00     0xc  <Block>
    .prog_sig          uninit   0x2000'3f00     0xc  PROG_Cbk.o [1]
                              - 0x2000'3f0c     0xc

Unused ranges:

         From           To    Size
         ----           --    ----
       0x1ac0       0x1bff   0x140
       0x1d88       0x1dff    0x78
     0x1'2138     0x1'ffff  0xdec8
  0x2000'2838  0x2000'3eff  0x16c8
  0x2000'3f0c  0x2000'3fff    0xf4



*******************************************************************************
*** MODULE SUMMARY
***

    Module                            ro code  ro data  rw data
    ------                            -------  -------  -------
command line/config:
    -----------------------------------------------------------
    Total:

C:\Git\eCS_Platform_Git\Tools\Build_Env\Workspace\Outputs\fbl\Obj: [1]
    APP_Prg.o                             128
    Arm_FaultHandlerThumb_isr.o            28
    BL_Nvm.o                                2
    BM_Cbk.o                                4
    BM_Prg.o                               68
    BlPduR_Cbk.o                          110
    BlPduR_Cfg.o                                    96    4 188
    BlPduR_Prg.o                        1 724                70
    Cal_Decompress.o                       64
    Cal_Decompress_Cfg.o                            20
    Can.o                                 120        4       17
    CanIf.o                             1 100                17
    CanIf_Cfg.o                                      8        8
    CanIf_PBCfg.o                                  336
    CanSM.o                                          2        4
    CanSM_ALV.o                             2
    CanSM_Cbk.o                            28
    CanSM_Cfg.o                                      1       13
    CanSM_Init.o                           36
    CanSM_RequestComMode.o                144
    CanSM_StateMachine.o                1 324
    CanTp_Cfg.o                                             786
    CanTp_ChangeParameter.o                92
    CanTp_Init.o                          296                 4
    CanTp_MainFunction.o                  264
    CanTp_PBCfg.o                                  500
    CanTp_PrepareFC.o                     340
    CanTp_PreparexF.o                     262
    CanTp_RxBufferDependentSend.o         370
    CanTp_RxIndication.o                1 920
    CanTp_STminCallback.o                 122
    CanTp_StopChannel.o                   120
    CanTp_Transmit.o                      200
    CanTp_TransmitFrame.o                 108
    CanTp_TxBufferDependentSend.o         316
    CanTp_TxConfirmation.o                600
    CanTp_UnlockChannel.o                 120
    Can_Cfg.o                                       36
    Can_Flexcan.o                       5 048       52      160
    Can_Irq.o                             288
    Can_PBcfg.o                                    168
    ComM.o                                  2
    Cpl_Common.o                          168
    Cpl_LZSSDecompress.o                  726
    Cpl_LZSSDecompress_Cfg.o                         8
    Cry_AES_Common.o                      424    1 280
    Cry_AES_Decrypt.o                   1 132               336
    Cry_AES_DecryptConfig.o                          1
    Cry_Base64.o                          336      256
    Cry_CbcPkcs7Decrypt.o                 748                84
    Cry_CbcPkcs7DecryptConfig.o                      2
    Cry_Common.o                           50
    Cry_LN.o                            1 564
    Cry_RsaSsaPssVerify.o               1 498        8    2 120
    Cry_RsaSsaPssVerifyConfig.o                      8
    Cry_SHA2.o                          2 868      256      504
    Cry_SHA2Config.o                                32
    Cry_SHA_Common.o                      688
    Csm.o                                  52
    Csm_Hash.o                            252                 3
    Csm_HashCfg.o                                   32
    Csm_SignatureVerify.o                 260                 3
    Csm_SignatureVerifyCfg.o                        28
    Csm_SymBlockDecrypt.o                 256                 3
    Csm_SymBlockDecryptCfg.o                        28
    Csm_SymDecrypt.o                      260                 3
    Csm_SymDecryptCfg.o                             28
    FLASH_Cfg.o                                     12
    FLASH_LLD.o                           116
    FLASH_Prg.o                           712        1       20
    FLS_S32K14X.o                         588                48
    Mcu.o                                 144        4        7
    Mcu_IPW.o                             182        4        4
    Mcu_PBcfg.o                                    536
    Mcu_PCC.o                              64
    Mcu_PMC.o                              44
    Mcu_RCM.o                              32
    Mcu_SCG.o                             344
    Mcu_SIM.o                             140
    Mcu_SMC.o                              16
    PROG_Cbk.o                          1 212      432      214
    PROG_Cfg.o                                      96
    PROG_Cry.o                            444                 7
    PROG_Cust_AppliCheck.o                528                 1
    PROG_Cust_Crc.o                        88    1 024
    PROG_Cust_Init.o                      130
    PROG_Decomp.o                         748            21 545
    PROG_Encrypt.o                        408                30
    PROG_Hsm.o                            668
    PROG_HsmPROGData.o                           3 370       68
    PROG_HsmPROGFnct.o                    542
    PROG_Mem.o                            146
    PROG_Prg.o                          7 486        1    5 501
    PROG_Responses.o                       20
    PduR.o                                                    5
    PduR_AdjLayerApi.o                     72
    PduR_GenericTpChangeParameter.o        72
    PduR_GenericTpCopyRxData.o             72
    PduR_GenericTpCopyTxData.o             64
    PduR_GenericTpRxIndication.o           68
    PduR_GenericTpStartOfReception.o       72
    PduR_GenericTpTransmit.o               68
    PduR_GenericTpTxConfirmation.o         68
    PduR_Init.o                            20
    PduR_Lcfg.o                                     58
    PduR_PBcfg.o                                   252
    Port.o                                 24        4        4
    Port_PBcfg.o                                 1 024
    Port_Port_Ci.o                        464
    SA_Cbk.o                               84
    SA_Prg.o                              276                17
    SchM.o                                132
    Spi.o                               1 032        8      136
    SpiIf.o                               774       49       13
    Spi_IPW.o                             224
    Spi_LPspi.o                         3 096       64      308
    Spi_PBcfg.o                                    377       64
    TSMem.o                                78
    UDS_Cbk.o                             560      164       68
    UDS_Cfg.o                                      888
    UDS_Prg.o                           4 140                32
    Watchdog.o                              2
    board.o                               628                 1
    boardStartup.o                        166
    board_irq.o                            86
    board_reset_vector.o                             8    2 048
    exceptiontable.o                       64
    interruptvectors.o                    640
    main.o                                112
    -----------------------------------------------------------
    Total:                             54 592   11 566   38 464

rt7M_tl.a: [2]
    ABImemclr.o                             6
    ABImemclr4.o                            6
    ABImemcpy_small.o                      24
    ABImemset48.o                          58
    ABImemset_small.o                      18
    -----------------------------------------------------------
    Total:                                112

    Gaps                                   34
    Linker created                                   3
---------------------------------------------------------------
    Grand Total:                       54 738   11 569   38 464


*******************************************************************************
*** ENTRY LIST
***

Entry                       Address    Size  Type      Object
-----                       -------    ----  ----      ------
APP_Init                     0x230f     0x4  Code  Gb  APP_Prg.o [1]
APP_InterruptDisable         0x2305     0xa  Code  Gb  APP_Prg.o [1]
APP_InterruptEnable          0x2301     0x4  Code  Gb  APP_Prg.o [1]
APP_TpRxInd                  0x237d     0x2  Code  Gb  APP_Prg.o [1]
APP_TpTxConf                 0x237b     0x2  Code  Gb  APP_Prg.o [1]
APP_UdsSessionStatusInd
                             0x2379     0x2  Code  Gb  APP_Prg.o [1]
APP_UnlockFlash              0x2313    0x56  Code  Gb  APP_Prg.o [1]
Arm_FaultHandlerThumb        0xc6ad          Code  Gb  Arm_FaultHandlerThumb_isr.o [1]
BLT_HardFaultHandlerHll
                             0x296f     0x2  Code  Gb  BL_Nvm.o [1]
BL_NvM_TryRead               0x96b7     0x4  Code  Gb  UDS_Cbk.o [1]
BM_BootStartUp               0x2a19    0x1a  Code  Gb  BM_Prg.o [1]
BM_HardwareInit              0x25f5     0x2  Code  Gb  BM_Cbk.o [1]
BM_SoftwareInit              0x25f7     0x2  Code  Gb  BM_Cbk.o [1]
BM_StartUp                   0x2a33    0x2a  Code  Gb  BM_Prg.o [1]
BOARD_GET_ISR_SRC            0x10a5          Code  Gb  boardStartup.o [1]
BSS$$Base               0x1fff'9200          Data  Gb  - Linker created -
BSS$$Limit              0x2000'275f          Data  Gb  - Linker created -
BlPduRRxPhysBuffer      0x1fff'9a00  0x1000  Data  Gb  BlPduR_Cfg.o [1]
BlPduR_ConvertRxFuncPduId
                             0x348f    0x40  Code  Lc  BlPduR_Prg.o [1]
BlPduR_CopyRxData            0x312b    0x78  Code  Gb  BlPduR_Prg.o [1]
BlPduR_CopyTxData            0x329f    0x44  Code  Gb  BlPduR_Prg.o [1]
BlPduR_Custom_Com_Deactivate
                             0x58fd     0x2  Code  Gb  BlPduR_Cbk.o [1]
BlPduR_Custom_Com_Init       0x58b9    0x26  Code  Gb  BlPduR_Cbk.o [1]
BlPduR_Custom_RequestCommunicationDown
                             0x58b1     0x2  Code  Gb  BlPduR_Cbk.o [1]
BlPduR_Custom_RequestCommunicationUp
                             0x58ad     0x4  Code  Gb  BlPduR_Cbk.o [1]
BlPduR_GetGroupIdVal         0x5891     0x4  Code  Gb  BlPduR_Cbk.o [1]
BlPduR_GetRxPduId            0x5895    0x12  Code  Gb  BlPduR_Cbk.o [1]
BlPduR_GetTpParameter        0x2eef    0x10  Code  Gb  BlPduR_Prg.o [1]
BlPduR_GroupIdFrameFilter
                             0x3453    0x3c  Code  Gb  BlPduR_Prg.o [1]
BlPduR_Init                  0x2e65    0x38  Code  Gb  BlPduR_Prg.o [1]
BlPduR_Init1                 0x2e9d     0x4  Code  Gb  BlPduR_Prg.o [1]
BlPduR_Init2                 0x2ea1    0x4e  Code  Gb  BlPduR_Prg.o [1]
BlPduR_Manage                0x2f57    0x1a  Code  Gb  BlPduR_Prg.o [1]
BlPduR_ReleaseBuffers        0x3365     0xe  Code  Lc  BlPduR_Prg.o [1]
BlPduR_RetrieveConnectionInfo
                             0x33e9    0x34  Code  Gb  BlPduR_Prg.o [1]
BlPduR_RxInd                 0x31cb    0xa4  Code  Gb  BlPduR_Prg.o [1]
BlPduR_SendMsgData           0x3277    0x28  Code  Gb  BlPduR_Prg.o [1]
BlPduR_Send_TPFrame          0x341d    0x1c  Code  Gb  BlPduR_Prg.o [1]
BlPduR_SimulateRxRequest
                             0x3439    0x1a  Code  Gb  BlPduR_Prg.o [1]
BlPduR_StartOfReception
                             0x300f   0x10c  Code  Gb  BlPduR_Prg.o [1]
BlPduR_StoreConnectionInfo
                             0x33af    0x3a  Code  Gb  BlPduR_Prg.o [1]
BlPduR_StoreRxPduId          0x58a7     0x6  Code  Gb  BlPduR_Cbk.o [1]
BlPduR_TpChangeParameter
                             0x2eff    0x58  Code  Gb  BlPduR_Prg.o [1]
BlPduR_TpRxIndication        0x31ab    0x20  Code  Gb  BlPduR_Prg.o [1]
BlPduR_TpRxMsgManage         0x2f71    0x9e  Code  Lc  BlPduR_Prg.o [1]
BlPduR_TpTxConfirmation
                             0x32e3     0x8  Code  Gb  BlPduR_Prg.o [1]
BlPduR_TxConf                0x32eb    0x7a  Code  Gb  BlPduR_Prg.o [1]
BoardDisableInterrupts       0x2501    0x18  Code  Gb  board.o [1]
BoardDisableMPU              0x243f     0xc  Code  Lc  board.o [1]
BoardDisableWatchdog         0x2381    0x18  Code  Lc  board.o [1]
BoardEnableInterrupts        0x2519    0x16  Code  Gb  board.o [1]
BoardEnablePeripherals       0x2399    0x12  Code  Lc  board.o [1]
BoardFlexCanErrorInterrupt
                             0xc707     0x4  Code  Gb  board_irq.o [1]
BoardFlexCanMailboxInterrupt
                             0xc70b    0x14  Code  Gb  board_irq.o [1]
BoardGetRandom               0x2479    0x16  Code  Gb  board.o [1]
BoardInitInterrupts          0x248f    0x4a  Code  Gb  board.o [1]
BoardInitMemorySections
                             0x23eb    0x36  Code  Lc  board.o [1]
BoardInitializationTimers
                             0x23ab    0x2a  Code  Gb  board.o [1]
BoardInvalidInterrupt        0xc705     0x2  Code  Gb  board_irq.o [1]
BoardIsSwReset               0x254f    0x34  Code  Gb  board.o [1]
BoardIsrHandler              0xc6c9    0x36  Code  Gb  board_irq.o [1]
BoardPerformSwReset          0x2531    0x1e  Code  Gb  board.o [1]
BoardSchedulingTimer         0x23d5    0x16  Code  Gb  board.o [1]
BoardSetSleepState           0x25ed     0x8  Code  Gb  board.o [1]
BoardStack              0x1fff'9200   0x800  Data  Gb  board_reset_vector.o [1]
BoardStart                   0x244b    0x2e  Code  Gb  board.o [1]
Board_CORTEXM_EnableVFPCoprocessor
                             0x1079          Code  Gb  boardStartup.o [1]
BswM_CanSM_CurrentState
                             0xc68f     0x2  Code  Gb  CanSM_ALV.o [1]
BufferRX_PBSpiChannel_DIA
                        0x2000'26ac     0x2  Data  Lc  Spi_PBcfg.o [1]
BufferRX_PBSpiChannel_INIT
                        0x2000'26b4     0x2  Data  Lc  Spi_PBcfg.o [1]
BufferRX_PBSpiChannel_WDG
                        0x2000'26a4     0x2  Data  Lc  Spi_PBcfg.o [1]
BufferTX_PBSpiChannel_DIA
                        0x2000'26a8     0x2  Data  Lc  Spi_PBcfg.o [1]
BufferTX_PBSpiChannel_INIT
                        0x2000'26b0     0x2  Data  Lc  Spi_PBcfg.o [1]
BufferTX_PBSpiChannel_WDG
                        0x2000'26a0     0x2  Data  Lc  Spi_PBcfg.o [1]
Buffer_PBSpiChannel_DIA
                        0x2000'27fc     0x8  Data  Lc  Spi_PBcfg.o [1]
Buffer_PBSpiChannel_INIT
                        0x2000'2804     0x8  Data  Lc  Spi_PBcfg.o [1]
Buffer_PBSpiChannel_WDG
                        0x2000'27f4     0x8  Data  Lc  Spi_PBcfg.o [1]
CORTEXMExceptionTable        0x1800          Data  Gb  exceptiontable.o [1]
CORTEXMInterruptTable        0x1840          Data  Gb  interruptvectors.o [1]
Cal_DecompressConfigurations
                             0xf410    0x14  Data  Gb  Cal_Decompress_Cfg.o [1]
Cal_DecompressFinish         0xa011    0x12  Code  Gb  Cal_Decompress.o [1]
Cal_DecompressStart          0x9fe9     0xe  Code  Gb  Cal_Decompress.o [1]
Cal_DecompressUpdate         0x9ff7    0x1a  Code  Gb  Cal_Decompress.o [1]
CanConfigSet                 0xf510    0x14  Data  Gb  Can_PBcfg.o [1]
CanIf_BinarySwFiltering
                             0x9415    0x74  Code  Lc  CanIf.o [1]
CanIf_CanControllerMode
                        0x1fff'ab04     0x4  Data  Gb  CanIf_Cfg.o [1]
CanIf_CbkFctPtrTbl           0xf524     0x8  Data  Gb  CanIf_Cfg.o [1]
CanIf_ConfigLayout           0xf52c   0x150  Data  Gb  CanIf_PBCfg.o [1]
CanIf_ConfigPtr         0x1fff'aaf8     0x4  Data  Gb  CanIf.o [1]
CanIf_ControllerModeIndication
                             0x9293    0x2a  Code  Gb  CanIf.o [1]
CanIf_DlcHandling            0x9489    0x10  Code  Lc  CanIf.o [1]
CanIf_DriverConfigPtr   0x1fff'ab00     0x4  Data  Lc  CanIf.o [1]
CanIf_GetCanIfIdFromCtrlIdx
                             0x92bd    0x2a  Code  Lc  CanIf.o [1]
CanIf_Init                   0x9115    0x52  Code  Gb  CanIf.o [1]
CanIf_PduMode           0x1fff'ab08     0x4  Data  Gb  CanIf_Cfg.o [1]
CanIf_ProcessRxPdu           0x94ef    0x52  Code  Lc  CanIf.o [1]
CanIf_RxIndication           0x922b    0x68  Code  Gb  CanIf.o [1]
CanIf_RxPduConfigPtr    0x1fff'aafc     0x4  Data  Lc  CanIf.o [1]
CanIf_SendRxIndication       0x9499    0x20  Code  Lc  CanIf.o [1]
CanIf_SendTxConfirmation
                             0x94b9    0x36  Code  Lc  CanIf.o [1]
CanIf_SetControllerMode
                             0x9167     0x2  Code  Gb  CanIf.o [1]
CanIf_SetControllerModeInternal
                             0x92e7    0x4c  Code  Lc  CanIf.o [1]
CanIf_SetOffline             0x9353     0x2  Code  Lc  CanIf.o [1]
CanIf_SetPduMode             0x9203    0x18  Code  Gb  CanIf.o [1]
CanIf_SetPduModeInternal
                             0x9341    0x12  Code  Lc  CanIf.o [1]
CanIf_SoftwareFiltering
                             0x935b    0xa8  Code  Lc  CanIf.o [1]
CanIf_State             0x2000'272e     0x1  Data  Lc  CanIf.o [1]
CanIf_Transmit               0x9169    0x9a  Code  Gb  CanIf.o [1]
CanIf_TxConfirmation         0x921b    0x10  Code  Gb  CanIf.o [1]
CanIf_TxPduConfigPtr    0x1fff'aaf4     0x4  Data  Gb  CanIf.o [1]
CanSMConfiguration         0x1'1fce     0x1  Data  Gb  CanSM_Cfg.o [1]
CanSM_CheckCtrlModeIndications
                             0xa4e9    0x18  Code  Lc  CanSM_StateMachine.o [1]
CanSM_ClearCtrlModeIndAndSetModes
                             0xa4db     0xe  Code  Lc  CanSM_StateMachine.o [1]
CanSM_CommFullCommunication
                        0x2000'2831     0x1  Data  Gb  CanSM.o [1]
CanSM_CommNoCommunication
                        0x2000'272f     0x1  Data  Gb  CanSM.o [1]
CanSM_CommSilentCommunication
                        0x2000'2830     0x1  Data  Gb  CanSM.o [1]
CanSM_ControllerModeIndication
                             0xb90d    0x12  Code  Gb  CanSM_Cbk.o [1]
CanSM_ControllerModeTypeToUint8
                             0xa541    0x14  Code  Lc  CanSM_StateMachine.o [1]
CanSM_CtrlModeIndication
                        0x2000'2731     0x1  Data  Gb  CanSM_Cfg.o [1]
CanSM_DefaultTrailingCriticalSection
                             0xa4b9    0x1c  Code  Lc  CanSM_StateMachine.o [1]
CanSM_DoTransitionSequence
                             0xa029    0x44  Code  Gb  CanSM_StateMachine.o [1]
CanSM_DoTransitionSwitch
                             0xa0b5    0x3c  Code  Lc  CanSM_StateMachine.o [1]
CanSM_Do_TRY_T_FUCO_BUS_OFF_PASSIVE
                             0xa437    0x20  Code  Lc  CanSM_StateMachine.o [1]
CanSM_Do_T_FUCO              0xa0f1    0x22  Code  Lc  CanSM_StateMachine.o [1]
CanSM_Do_T_FUCO_HANDLE_BUS_OFF
                             0xa32f    0x8a  Code  Lc  CanSM_StateMachine.o [1]
CanSM_Do_T_FUCO_SICO         0xa2d5    0x1c  Code  Lc  CanSM_StateMachine.o [1]
CanSM_Do_T_FUCO_TX_OFF       0xa3c1    0x14  Code  Lc  CanSM_StateMachine.o [1]
CanSM_Do_T_FUCO_TX_ON        0xa3f5    0x28  Code  Lc  CanSM_StateMachine.o [1]
CanSM_Do_T_RFUCO             0xa143    0x22  Code  Lc  CanSM_StateMachine.o [1]
CanSM_Do_T_RFUCO_CC_STARTED
                             0xa271    0x52  Code  Lc  CanSM_StateMachine.o [1]
CanSM_Do_T_RFUCO_CC_STOPPED
                             0xa247    0x2a  Code  Lc  CanSM_StateMachine.o [1]
CanSM_Do_T_RFUCO_INITIAL
                             0xa219     0x6  Code  Lc  CanSM_StateMachine.o [1]
CanSM_Do_T_RFUCO_TRCV_NORMAL
                             0xa21f    0x16  Code  Lc  CanSM_StateMachine.o [1]
CanSM_Do_T_RNOCO             0xa113    0x30  Code  Lc  CanSM_StateMachine.o [1]
CanSM_Do_T_RNOCO_CC_INITIAL
                             0xa195    0x16  Code  Lc  CanSM_StateMachine.o [1]
CanSM_Do_T_RNOCO_CC_SLEEP
                             0xa1dd     0x6  Code  Lc  CanSM_StateMachine.o [1]
CanSM_Do_T_RNOCO_CC_STOPPED
                             0xa1ab    0x1e  Code  Lc  CanSM_StateMachine.o [1]
CanSM_Do_T_RNOCO_DEINIT_INITIAL
                             0xa18f     0x6  Code  Lc  CanSM_StateMachine.o [1]
CanSM_Do_T_RNOCO_FINAL       0xa1e3    0x36  Code  Lc  CanSM_StateMachine.o [1]
CanSM_Do_T_RNOCO_INITIAL
                             0xa17f    0x10  Code  Lc  CanSM_StateMachine.o [1]
CanSM_Do_T_SICO_FUCO         0xa2f1    0x3e  Code  Lc  CanSM_StateMachine.o [1]
CanSM_Do_T_TX_TIMEOUT        0xa165    0x1a  Code  Lc  CanSM_StateMachine.o [1]
CanSM_Do_T_TX_TIMEOUT_CC_STARTED_INDICATED
                             0xa497    0x1a  Code  Lc  CanSM_StateMachine.o [1]
CanSM_Do_T_TX_TIMEOUT_CC_STOPPED_INDICATED
                             0xa475    0x1a  Code  Lc  CanSM_StateMachine.o [1]
CanSM_Do_T_TX_TIMEOUT_INITIAL
                             0xa457    0x16  Code  Lc  CanSM_StateMachine.o [1]
CanSM_GlobalInit        0x2000'2730     0x1  Data  Gb  CanSM.o [1]
CanSM_Init                   0x9689    0x24  Code  Gb  CanSM_Init.o [1]
CanSM_NetworkInfo       0x1fff'ab0c     0xc  Data  Gb  CanSM_Cfg.o [1]
CanSM_RequestComMode         0x8ff9    0x22  Code  Gb  CanSM_RequestComMode.o [1]
CanSM_RequestComModeInternal
                             0x901b    0x62  Code  Lc  CanSM_RequestComMode.o [1]
CanSM_SetCtrlModes           0xa501    0x2a  Code  Lc  CanSM_StateMachine.o [1]
CanSM_SetPduModes            0xa4d5     0x6  Code  Lc  CanSM_StateMachine.o [1]
CanSM_VerifyRequestedComMode
                             0xa06d    0x48  Code  Gb  CanSM_StateMachine.o [1]
CanStatic_ConfigSet          0xf43c     0xc  Data  Gb  Can_Cfg.o [1]
CanStatic_pControlerDescriptors
                        0x1fff'aa50     0x4  Data  Gb  Can.o [1]
CanStatic_pCurrentConfig
                        0x2000'27b0     0x4  Data  Gb  Can.o [1]
CanTp_CalculateBlockSize
                             0xba6d    0x68  Code  Gb  CanTp_PrepareFC.o [1]
CanTp_CalculateNPduMaxLength
                             0xc65b    0x26  Code  Lc  CanTp_RxIndication.o [1]
CanTp_CfgPtr            0x1fff'ae28     0x4  Data  Gb  CanTp_Init.o [1]
CanTp_ChangeParameter        0xc841    0x4c  Code  Gb  CanTp_ChangeParameter.o [1]
CanTp_Channel           0x1fff'ab28   0x300  Data  Gb  CanTp_Cfg.o [1]
CanTp_CheckAndHandleWaitFrameTimeOut
                             0xbb0b    0x28  Code  Gb  CanTp_PrepareFC.o [1]
CanTp_CheckNPduLength        0xc647    0x14  Code  Lc  CanTp_RxIndication.o [1]
CanTp_ConfigLayout           0xf67c   0x1f4  Data  Gb  CanTp_PBCfg.o [1]
CanTp_FindNSduId             0xc17b    0x84  Code  Lc  CanTp_RxIndication.o [1]
CanTp_Init                   0x9561    0xb6  Code  Gb  CanTp_Init.o [1]
CanTp_InitChannelPtr         0x9617    0x58  Code  Gb  CanTp_Init.o [1]
CanTp_InitVars          0x2000'2732     0x1  Data  Gb  CanTp_Cfg.o [1]
CanTp_MainFunction           0x6d51    0x46  Code  Gb  CanTp_MainFunction.o [1]
CanTp_NonIdleChannelCounter
                        0x2000'2733     0x1  Data  Gb  CanTp_Cfg.o [1]
CanTp_PostRxIndication       0xc041    0x62  Code  Gb  CanTp_RxIndication.o [1]
CanTp_PostSTminCallback
                             0x9c0d    0x26  Code  Gb  CanTp_STminCallback.o [1]
CanTp_PostTxConfirmation
                             0xbd15    0x2c  Code  Gb  CanTp_TxConfirmation.o [1]
CanTp_PostponeRxFrame        0xc0a3    0x26  Code  Lc  CanTp_RxIndication.o [1]
CanTp_PrepareFC              0xb9ed    0x66  Code  Gb  CanTp_PrepareFC.o [1]
CanTp_PreparePadding         0xbc21    0x26  Code  Gb  CanTp_PreparexF.o [1]
CanTp_PreparexF              0xbb41    0xd0  Code  Gb  CanTp_PreparexF.o [1]
CanTp_ProcessConfirmedCF
                             0xbe29    0xba  Code  Lc  CanTp_TxConfirmation.o [1]
CanTp_ProcessCopyTxData
                             0x9f3b    0x32  Code  Lc  CanTp_TxBufferDependentSend.o [1]
CanTp_ProcessReceivedCF
                             0xc3b9    0x6c  Code  Lc  CanTp_RxIndication.o [1]
CanTp_ProcessReceivedFC
                             0xc58d    0xba  Code  Lc  CanTp_RxIndication.o [1]
CanTp_ProcessReceivedFF
                             0xc2b9   0x100  Code  Lc  CanTp_RxIndication.o [1]
CanTp_ProcessReceivedIntermediateCF
                             0xc42f    0xc6  Code  Lc  CanTp_RxIndication.o [1]
CanTp_ProcessReceivedLastCF
                             0xc529    0x5a  Code  Lc  CanTp_RxIndication.o [1]
CanTp_ProcessReceivedSF
                             0xc1ff    0xba  Code  Lc  CanTp_RxIndication.o [1]
CanTp_ProcessRxFrame         0xc0c9    0x6e  Code  Lc  CanTp_RxIndication.o [1]
CanTp_ProcessStartOfReception
                             0x9cc1    0x5e  Code  Gb  CanTp_RxBufferDependentSend.o [1]
CanTp_ProcessStartOfReceptionData
                             0x9d1f    0x3a  Code  Gb  CanTp_RxBufferDependentSend.o [1]
CanTp_ProcessTxPdu           0xbd41    0xe8  Code  Lc  CanTp_TxConfirmation.o [1]
CanTp_RequestTxFrameData
                             0x9ea3    0x98  Code  Lc  CanTp_TxBufferDependentSend.o [1]
CanTp_RxChannelCleanup       0xc149    0x32  Code  Lc  CanTp_RxIndication.o [1]
CanTp_RxIndication           0xbf0d   0x11a  Code  Gb  CanTp_RxIndication.o [1]
CanTp_RxNSduBSValues    0x1fff'ab20     0x8  Data  Gb  CanTp_Cfg.o [1]
CanTp_RxNSduStMinValues
                        0x1fff'ab18     0x8  Data  Gb  CanTp_Cfg.o [1]
CanTp_RxProcessData          0x9d59    0x26  Code  Gb  CanTp_RxBufferDependentSend.o [1]
CanTp_RxStateHandling        0x9d97    0x90  Code  Gb  CanTp_RxBufferDependentSend.o [1]
CanTp_STminCallback          0x9bcd    0x3c  Code  Gb  CanTp_STminCallback.o [1]
CanTp_STminTimeoutHandling
                             0x9c33    0x14  Code  Lc  CanTp_STminCallback.o [1]
CanTp_StallHandling          0x6dd5    0x72  Code  Lc  CanTp_MainFunction.o [1]
CanTp_StopChannel            0x9c49    0x78  Code  Gb  CanTp_StopChannel.o [1]
CanTp_TimeoutHandling        0x6d97    0x3e  Code  Gb  CanTp_MainFunction.o [1]
CanTp_Transmit               0xc89d    0x96  Code  Gb  CanTp_Transmit.o [1]
CanTp_TransmitFrame          0xbc49    0x6c  Code  Gb  CanTp_TransmitFrame.o [1]
CanTp_TxConfirmation         0xbcb5    0x60  Code  Gb  CanTp_TxConfirmation.o [1]
CanTp_TxStateHandling        0x9e35    0x6e  Code  Gb  CanTp_TxBufferDependentSend.o [1]
CanTp_UnlockChannel          0x9f71    0x78  Code  Gb  CanTp_UnlockChannel.o [1]
CanTp_VerifyBlockSize        0xbad5    0x36  Code  Gb  CanTp_PrepareFC.o [1]
Can_ControllerStatuses  0x1fff'aa54    0x9c  Data  Gb  Can_Flexcan.o [1]
Can_FilterMasks0_PB          0xf47c     0x4  Data  Lc  Can_PBcfg.o [1]
Can_FlexCan_DisableInterrupts
                             0xa555    0x74  Code  Lc  Can_Flexcan.o [1]
Can_FlexCan_EnableInterrupts
                             0xa5c9    0xa8  Code  Lc  Can_Flexcan.o [1]
Can_FlexCan_GotoFreezeMode
                             0xafa9    0x9e  Code  Lc  Can_Flexcan.o [1]
Can_FlexCan_InitController
                             0xb23f   0x356  Code  Gb  Can_Flexcan.o [1]
Can_FlexCan_InitReceiveMBs
                             0xa707   0x14e  Code  Lc  Can_Flexcan.o [1]
Can_FlexCan_InitRxInvidualMask
                             0xa67f    0x5c  Code  Lc  Can_Flexcan.o [1]
Can_FlexCan_InitTransmitMBs
                             0xa869   0x156  Code  Lc  Can_Flexcan.o [1]
Can_FlexCan_InitVariables
                             0xb187    0x9a  Code  Gb  Can_Flexcan.o [1]
Can_FlexCan_ProcessRx        0xb7c1    0x5c  Code  Gb  Can_Flexcan.o [1]
Can_FlexCan_ProcessRxNormal
                             0xae51   0x14c  Code  Lc  Can_Flexcan.o [1]
Can_FlexCan_ProcessTx        0xb765    0x5c  Code  Gb  Can_Flexcan.o [1]
Can_FlexCan_ProcessTxPoll
                             0xadeb    0x66  Code  Lc  Can_Flexcan.o [1]
Can_FlexCan_ResetController
                             0xb0ef    0x84  Code  Lc  Can_Flexcan.o [1]
Can_FlexCan_SellectClockSource
                             0xb05d    0x7e  Code  Lc  Can_Flexcan.o [1]
Can_FlexCan_SetControllerMode
                             0xb5dd    0x2e  Code  Gb  Can_Flexcan.o [1]
Can_FlexCan_SetControllerToSleepMode
                             0xabd5    0x2c  Code  Lc  Can_Flexcan.o [1]
Can_FlexCan_SetControllerToStartMode
                             0xaaf9    0xc2  Code  Lc  Can_Flexcan.o [1]
Can_FlexCan_SetControllerToStopMode
                             0xa9bf   0x13a  Code  Lc  Can_Flexcan.o [1]
Can_FlexCan_SetControllerToWakeupMode
                             0xac01    0x2a  Code  Lc  Can_Flexcan.o [1]
Can_FlexCan_UpdateMB         0xac2b   0x1c0  Code  Lc  Can_Flexcan.o [1]
Can_FlexCan_Write            0xb60b   0x140  Code  Gb  Can_Flexcan.o [1]
Can_Flexcan_aDataLengthMax
                             0xf448     0x8  Data  Gb  Can_Flexcan.o [1]
Can_Flexcan_aDataLengthMin
                             0xf450     0x8  Data  Gb  Can_Flexcan.o [1]
Can_IflagImask               0xf464    0x18  Data  Gb  Can_Flexcan.o [1]
Can_Init                     0x909d    0x48  Code  Gb  Can.o [1]
Can_IsrFCA_ERR               0xc721    0x4c  Code  Gb  Can_Irq.o [1]
Can_IsrFCA_MB_00_15          0xc781    0x2c  Code  Gb  Can_Irq.o [1]
Can_IsrFCA_MB_16_31          0xc7b5    0x2e  Code  Gb  Can_Irq.o [1]
Can_SetControllerMode        0x90e5    0x12  Code  Gb  Can.o [1]
Can_Write                    0x90f7     0x4  Code  Gb  Can.o [1]
Can_eDriverStatus       0x2000'272d     0x1  Data  Gb  Can.o [1]
Can_pControlerDescriptors
                        0x1fff'aa4c     0x4  Data  Gb  Can.o [1]
Can_pCurrentConfig      0x1fff'aa48     0x4  Data  Gb  Can.o [1]
Can_u32BaseAddress           0xf458     0xc  Data  Gb  Can_Flexcan.o [1]
Can_u32TicksDelayDuration
                        0x1fff'aaf0     0x4  Data  Gb  Can_Flexcan.o [1]
ComM_BusSM_ModeIndication
                             0xc68d     0x2  Code  Gb  ComM.o [1]
ControlerDescriptors0_PB
                             0xf500    0x10  Data  Lc  Can_PBcfg.o [1]
ControlerDescriptors0_PC
                             0xf428    0x14  Data  Lc  Can_Cfg.o [1]
ControllerBaudrateCfgSet0_PB_0
                             0xf4d4    0x2c  Data  Lc  Can_PBcfg.o [1]
ControllerBaudrateCfgSet0_PC_0
                             0xf424     0x4  Data  Lc  Can_Cfg.o [1]
CplLzssDecompressConfig_0
                             0xf870     0x8  Data  Gb  Cpl_LZSSDecompress_Cfg.o [1]
Cpl_CommonRingBufferGetLevel
                             0xf10b     0x4  Code  Gb  Cpl_Common.o [1]
Cpl_CommonRingBufferInit
                             0xf067    0x24  Code  Gb  Cpl_Common.o [1]
Cpl_CommonRingBufferPush
                             0xf08b    0x34  Code  Gb  Cpl_Common.o [1]
Cpl_CommonRingBufferReadFromEnd
                             0xf0bf    0x4c  Code  Gb  Cpl_Common.o [1]
Cpl_LZSSCopyBytesFromLookBack
                             0xf3a3    0x42  Code  Lc  Cpl_LZSSDecompress.o [1]
Cpl_LZSSDecodeEncoding       0xf347    0x5c  Code  Lc  Cpl_LZSSDecompress.o [1]
Cpl_LZSSDecompressBeg        0xf1d9    0x40  Code  Lc  Cpl_LZSSDecompress.o [1]
Cpl_LZSSDecompressEnd        0xf317    0x30  Code  Lc  Cpl_LZSSDecompress.o [1]
Cpl_LZSSDecompressFinish
                             0xf187    0x52  Code  Gb  Cpl_LZSSDecompress.o [1]
Cpl_LZSSDecompressRun        0xf219    0xfe  Code  Lc  Cpl_LZSSDecompress.o [1]
Cpl_LZSSDecompressStart
                             0xf10f    0x1c  Code  Gb  Cpl_LZSSDecompress.o [1]
Cpl_LZSSDecompressUpdate
                             0xf12b    0x5c  Code  Gb  Cpl_LZSSDecompress.o [1]
CryAESDecryptConfig_0      0x1'1fcf     0x1  Data  Gb  Cry_AES_DecryptConfig.o [1]
CryCbcPkcs7DecryptConfig_0
                           0x1'1f94     0x2  Data  Gb  Cry_CbcPkcs7DecryptConfig.o [1]
CryRsaSsaPssVerifyConfig_0
                             0xfe80     0x8  Data  Gb  Cry_RsaSsaPssVerifyConfig.o [1]
CrySHA2Config_0              0xff98    0x10  Data  Gb  Cry_SHA2Config.o [1]
CrySHA2Config_0_AlgorithmId
                             0xff88    0x10  Data  Lc  Cry_SHA2Config.o [1]
Cry_AES_CommonAesStateTranspose
                             0xcad7    0x36  Code  Gb  Cry_AES_Common.o [1]
Cry_AES_CommonKeyExpand
                             0xc965   0x11a  Code  Gb  Cry_AES_Common.o [1]
Cry_AES_CommonTurnKeyAdd
                             0xcabd    0x1a  Code  Gb  Cry_AES_Common.o [1]
Cry_AES_CommonTurnKeyCreate
                             0xca91    0x2c  Code  Gb  Cry_AES_Common.o [1]
Cry_AES_DecryptContext  0x1fff'ae2c   0x150  Data  Lc  Cry_AES_Decrypt.o [1]
Cry_AES_DecryptFinish        0xcbd5    0x1c  Code  Gb  Cry_AES_Decrypt.o [1]
Cry_AES_DecryptMainFunction
                             0xcbf1    0xe2  Code  Gb  Cry_AES_Decrypt.o [1]
Cry_AES_DecryptMixColumns
                             0xcd23   0x192  Code  Lc  Cry_AES_Decrypt.o [1]
Cry_AES_DecryptShiftRows
                             0xcceb    0x38  Code  Lc  Cry_AES_Decrypt.o [1]
Cry_AES_DecryptStart         0xcb0d    0x8a  Code  Gb  Cry_AES_Decrypt.o [1]
Cry_AES_DecryptSubBytes
                             0xccd3    0x18  Code  Lc  Cry_AES_Decrypt.o [1]
Cry_AES_DecryptUpdate        0xcb97    0x3e  Code  Gb  Cry_AES_Decrypt.o [1]
Cry_AES_GF28G3Exp            0xfb78   0x100  Data  Gb  Cry_AES_Common.o [1]
Cry_AES_GF28G3Ln             0xfc78   0x100  Data  Gb  Cry_AES_Common.o [1]
Cry_AES_Rcon                 0xfa78   0x100  Data  Gb  Cry_AES_Common.o [1]
Cry_AES_SboxInv              0xf978   0x100  Data  Gb  Cry_AES_Common.o [1]
Cry_AES_SboxNrm              0xf878   0x100  Data  Gb  Cry_AES_Common.o [1]
Cry_Base64Decode             0xcfad    0xd4  Code  Gb  Cry_Base64.o [1]
Cry_Base64DecodeOneBlock
                             0xd081    0x76  Code  Lc  Cry_Base64.o [1]
Cry_Base64Mapping            0xfd78   0x100  Data  Lc  Cry_Base64.o [1]
Cry_CBCPkcs7DecStateCpLastBl
                             0xd365    0x42  Code  Lc  Cry_CbcPkcs7Decrypt.o [1]
Cry_CBCPkcs7DecStateReadWrite
                             0xd235    0x9c  Code  Lc  Cry_CbcPkcs7Decrypt.o [1]
Cry_CBCPkcs7DecStateReqSbFin
                             0xd3b3    0x20  Code  Lc  Cry_CbcPkcs7Decrypt.o [1]
Cry_CBCPkcs7DecStateReqSbSt
                             0xd213    0x22  Code  Lc  Cry_CbcPkcs7Decrypt.o [1]
Cry_CBCPkcs7DecStateReqSbUpd
                             0xd2dd    0x42  Code  Lc  Cry_CbcPkcs7Decrypt.o [1]
Cry_CBCPkcs7DecStateXOR
                             0xd333    0x2c  Code  Lc  Cry_CbcPkcs7Decrypt.o [1]
Cry_CbcPkcs7DecryptCallback
                             0xd1cf    0x44  Code  Gb  Cry_CbcPkcs7Decrypt.o [1]
Cry_CbcPkcs7DecryptContext
                        0x1fff'af7c    0x54  Data  Lc  Cry_CbcPkcs7Decrypt.o [1]
Cry_CbcPkcs7DecryptFinish
                             0xd16d    0x34  Code  Gb  Cry_CbcPkcs7Decrypt.o [1]
Cry_CbcPkcs7DecryptMainFunction
                             0xd1a1    0x2e  Code  Gb  Cry_CbcPkcs7Decrypt.o [1]
Cry_CbcPkcs7DecryptStart
                             0xd0fd    0x34  Code  Gb  Cry_CbcPkcs7Decrypt.o [1]
Cry_CbcPkcs7DecryptUpdate
                             0xd131    0x3c  Code  Gb  Cry_CbcPkcs7Decrypt.o [1]
Cry_CommonCopy               0xcf83    0x12  Code  Gb  Cry_Common.o [1]
Cry_CommonResetCtx           0xcf79     0xa  Code  Gb  Cry_Common.o [1]
Cry_CommonXOR                0xcf95    0x16  Code  Gb  Cry_Common.o [1]
Cry_LNBEByteArrayToNumber
                             0xd509    0x46  Code  Gb  Cry_LN.o [1]
Cry_LNBitLengthOfNumber
                             0xd3e9    0x1c  Code  Gb  Cry_LN.o [1]
Cry_LNIsValid                0xd68f    0x18  Code  Gb  Cry_LN.o [1]
Cry_LNModExp                 0xd5d1    0xbe  Code  Gb  Cry_LN.o [1]
Cry_LNModExpStart            0xd5cb     0x6  Code  Gb  Cry_LN.o [1]
Cry_LNModulo                 0xd49d    0x6c  Code  Gb  Cry_LN.o [1]
Cry_LNModuloBegin            0xd6a7    0x38  Code  Lc  Cry_LN.o [1]
Cry_LNModuloCarry            0xd841    0x3a  Code  Lc  Cry_LN.o [1]
Cry_LNModuloExport           0xd87b     0xe  Code  Lc  Cry_LN.o [1]
Cry_LNModuloShift1           0xd6df    0x2a  Code  Lc  Cry_LN.o [1]
Cry_LNModuloShift2           0xd709    0x8c  Code  Lc  Cry_LN.o [1]
Cry_LNModuloStart            0xd493     0x6  Code  Gb  Cry_LN.o [1]
Cry_LNModuloSubtract1        0xd795    0x22  Code  Lc  Cry_LN.o [1]
Cry_LNModuloSubtract2        0xd7b7    0x8a  Code  Lc  Cry_LN.o [1]
Cry_LNMultiplyNumbers        0xd421    0x72  Code  Gb  Cry_LN.o [1]
Cry_LNMultiplyStart          0xd419     0x6  Code  Gb  Cry_LN.o [1]
Cry_LNNormalizeNumber        0xd405    0x14  Code  Gb  Cry_LN.o [1]
Cry_LNNumberToBEByteArray
                             0xd54f    0x36  Code  Gb  Cry_LN.o [1]
Cry_LNStateMultiplyBegin
                             0xd889    0x34  Code  Lc  Cry_LN.o [1]
Cry_LNStateMultiplyCarry
                             0xd9a7    0x4a  Code  Lc  Cry_LN.o [1]
Cry_LNStateMultiplyComputeIsum1
                             0xd8dd    0x54  Code  Lc  Cry_LN.o [1]
Cry_LNStateMultiplyComputeIsum2
                             0xd931    0x60  Code  Lc  Cry_LN.o [1]
Cry_LNStateMultiplyComputeOsum
                             0xd8bd    0x20  Code  Lc  Cry_LN.o [1]
Cry_LNStateMultiplyExport
                             0xd9f1    0x14  Code  Lc  Cry_LN.o [1]
Cry_RsaSsaPssDoneMask        0xdf09    0xb6  Code  Lc  Cry_RsaSsaPssVerify.o [1]
Cry_RsaSsaPssFinishComputeModularExp
                             0xde59    0x3c  Code  Lc  Cry_RsaSsaPssVerify.o [1]
Cry_RsaSsaPssFinishExp       0xde95    0x74  Code  Lc  Cry_RsaSsaPssVerify.o [1]
Cry_RsaSsaPssStartExp        0xddef    0x54  Code  Lc  Cry_RsaSsaPssVerify.o [1]
Cry_RsaSsaPssVerifyCallback
                             0xdd57    0x98  Code  Gb  Cry_RsaSsaPssVerify.o [1]
Cry_RsaSsaPssVerifyCtx  0x1fff'afd0   0x848  Data  Lc  Cry_RsaSsaPssVerify.o [1]
Cry_RsaSsaPssVerifyFinish
                             0xda87    0x22  Code  Gb  Cry_RsaSsaPssVerify.o [1]
Cry_RsaSsaPssVerifyMainFunction
                             0xdab1   0x29a  Code  Gb  Cry_RsaSsaPssVerify.o [1]
Cry_RsaSsaPssVerifyStart
                             0xda05    0x5e  Code  Gb  Cry_RsaSsaPssVerify.o [1]
Cry_RsaSsaPssVerifyUpdate
                             0xda63    0x24  Code  Gb  Cry_RsaSsaPssVerify.o [1]
Cry_RsaSsaPssVerify_Null_String
                             0xfe78     0x8  Data  Lc  Cry_RsaSsaPssVerify.o [1]
Cry_SHA224256Compress        0xe3b5   0x846  Code  Lc  Cry_SHA2.o [1]
Cry_SHA224256K               0xfe88   0x100  Data  Lc  Cry_SHA2.o [1]
Cry_SHA2AlgorithmId          0xe335     0x8  Code  Gb  Cry_SHA2.o [1]
Cry_SHA2Ctx             0x1fff'b818   0x1f8  Data  Lc  Cry_SHA2.o [1]
Cry_SHA2Finish               0xe2f1    0x34  Code  Gb  Cry_SHA2.o [1]
Cry_SHA2Init                 0xe33d    0x76  Code  Lc  Cry_SHA2.o [1]
Cry_SHA2MainFunction         0xe325    0x10  Code  Gb  Cry_SHA2.o [1]
Cry_SHA2Start                0xe291    0x34  Code  Gb  Cry_SHA2.o [1]
Cry_SHA2Update               0xe2c5    0x2c  Code  Gb  Cry_SHA2.o [1]
Cry_SHACountConvert          0xe1df    0x1c  Code  Lc  Cry_SHA_Common.o [1]
Cry_SHAExport                0xe1fb    0x7a  Code  Lc  Cry_SHA_Common.o [1]
Cry_SHAMainFunction          0xdfe1    0xea  Code  Gb  Cry_SHA_Common.o [1]
Cry_SHAProcessInput          0xe0cd   0x112  Code  Lc  Cry_SHA_Common.o [1]
Csm_HashCallbackNotification
                             0x7e2b     0xc  Code  Gb  Csm_Hash.o [1]
Csm_HashConfigurations       0xffa8    0x20  Data  Gb  Csm_HashCfg.o [1]
Csm_HashCurrentConfigId
                        0x2000'26aa     0x2  Data  Gb  Csm_Hash.o [1]
Csm_HashFinish               0x7ddf    0x34  Code  Gb  Csm_Hash.o [1]
Csm_HashInit                 0x7e3d     0x2  Code  Gb  Csm_Hash.o [1]
Csm_HashIsRunning       0x2000'2734     0x1  Data  Gb  Csm_Hash.o [1]
Csm_HashMainFunction         0x7e13    0x18  Code  Gb  Csm_Hash.o [1]
Csm_HashServiceFinishNotification
                             0x7e37     0x2  Code  Gb  Csm_Hash.o [1]
Csm_HashStart                0x7d59    0x56  Code  Gb  Csm_Hash.o [1]
Csm_HashUpdate               0x7daf    0x30  Code  Gb  Csm_Hash.o [1]
Csm_Init                     0x525f    0x16  Code  Gb  Csm.o [1]
Csm_MainFunction             0x5275    0x1e  Code  Gb  Csm.o [1]
Csm_SignatureVerifyCallbackNotification
                             0x7f2f     0xe  Code  Gb  Csm_SignatureVerify.o [1]
Csm_SignatureVerifyConfigurations
                             0xffc8    0x1c  Data  Gb  Csm_SignatureVerifyCfg.o [1]
Csm_SignatureVerifyCurrentConfigId
                        0x2000'26ae     0x2  Data  Gb  Csm_SignatureVerify.o [1]
Csm_SignatureVerifyFinish
                             0x7edf    0x36  Code  Gb  Csm_SignatureVerify.o [1]
Csm_SignatureVerifyInit
                             0x7f41     0x2  Code  Gb  Csm_SignatureVerify.o [1]
Csm_SignatureVerifyIsRunning
                        0x2000'2735     0x1  Data  Gb  Csm_SignatureVerify.o [1]
Csm_SignatureVerifyMainFunction
                             0x7f15    0x1a  Code  Gb  Csm_SignatureVerify.o [1]
Csm_SignatureVerifyServiceFinishNotification
                             0x7f3d     0x2  Code  Gb  Csm_SignatureVerify.o [1]
Csm_SignatureVerifyStart
                             0x7e55    0x58  Code  Gb  Csm_SignatureVerify.o [1]
Csm_SignatureVerifyUpdate
                             0x7ead    0x32  Code  Gb  Csm_SignatureVerify.o [1]
Csm_SymBlockDecryptCallbackNotification
                             0x802f     0xe  Code  Gb  Csm_SymBlockDecrypt.o [1]
Csm_SymBlockDecryptConfigurations
                             0xffe4    0x1c  Data  Gb  Csm_SymBlockDecryptCfg.o [1]
Csm_SymBlockDecryptCurrentConfigId
                        0x2000'26b2     0x2  Data  Gb  Csm_SymBlockDecrypt.o [1]
Csm_SymBlockDecryptFinish
                             0x7fe9    0x2c  Code  Gb  Csm_SymBlockDecrypt.o [1]
Csm_SymBlockDecryptInit
                             0x8041     0x2  Code  Gb  Csm_SymBlockDecrypt.o [1]
Csm_SymBlockDecryptIsRunning
                        0x2000'2736     0x1  Data  Gb  Csm_SymBlockDecrypt.o [1]
Csm_SymBlockDecryptMainFunction
                             0x8015    0x1a  Code  Gb  Csm_SymBlockDecrypt.o [1]
Csm_SymBlockDecryptServiceFinishNotification
                             0x803d     0x2  Code  Gb  Csm_SymBlockDecrypt.o [1]
Csm_SymBlockDecryptStart
                             0x7f59    0x58  Code  Gb  Csm_SymBlockDecrypt.o [1]
Csm_SymBlockDecryptUpdate
                             0x7fb1    0x38  Code  Gb  Csm_SymBlockDecrypt.o [1]
Csm_SymDecryptCallbackNotification
                             0x8135     0xe  Code  Gb  Csm_SymDecrypt.o [1]
Csm_SymDecryptConfigurations
                           0x1'0000    0x1c  Data  Gb  Csm_SymDecryptCfg.o [1]
Csm_SymDecryptCurrentConfigId
                        0x2000'26b6     0x2  Data  Gb  Csm_SymDecrypt.o [1]
Csm_SymDecryptFinish         0x80e9    0x32  Code  Gb  Csm_SymDecrypt.o [1]
Csm_SymDecryptInit           0x8145     0x2  Code  Gb  Csm_SymDecrypt.o [1]
Csm_SymDecryptIsRunning
                        0x2000'2737     0x1  Data  Gb  Csm_SymDecrypt.o [1]
Csm_SymDecryptMainFunction
                             0x811b    0x1a  Code  Gb  Csm_SymDecrypt.o [1]
Csm_SymDecryptServiceFinishNotification
                             0x8143     0x2  Code  Gb  Csm_SymDecrypt.o [1]
Csm_SymDecryptStart          0x8059    0x58  Code  Gb  Csm_SymDecrypt.o [1]
Csm_SymDecryptUpdate         0x80b1    0x38  Code  Gb  Csm_SymDecrypt.o [1]
DATA$$Base              0x2000'2760          Data  Gb  - Linker created -
DATA$$Limit             0x2000'2838          Data  Gb  - Linker created -
DATA_init$$Base            0x1'2060          Data  Gb  - Linker created -
DATA_init$$Limit           0x1'2138           --   Gb  - Linker created -
DID_F17C_VWFazitIdentificationString_Default
                           0x1'1bec    0x18  Data  Gb  UDS_Cbk.o [1]
DID_F187_VWSparePartNumber_Default
                           0x1'1b78     0xc  Data  Gb  UDS_Cbk.o [1]
DID_F189_VWSoftwareVersionNumber_Default
                           0x1'1b84     0x8  Data  Gb  UDS_Cbk.o [1]
DID_F18C_EcuSerialNumber_Default
                           0x1'1b8c    0x18  Data  Gb  UDS_Cbk.o [1]
DID_F190_Vin_Default       0x1'1bd8    0x14  Data  Gb  UDS_Cbk.o [1]
DID_F191_VWEcuHardwareNumber_Default
                           0x1'1ba4     0xc  Data  Gb  UDS_Cbk.o [1]
DID_F19E_AsamOdxFileIdentifier_Default
                           0x1'1bb0    0x1c  Data  Gb  UDS_Cbk.o [1]
DID_F1A2_AsamOdxFileVersion_Default
                           0x1'1bcc     0x8  Data  Gb  UDS_Cbk.o [1]
DID_F1A3_VWEcuHardwareVersionNumber_Default
                           0x1'1bd4     0x4  Data  Gb  UDS_Cbk.o [1]
DID_F1AB_VWLogicalSoftwareBlockVersion
                           0x1'1c0c    0x10  Data  Gb  UDS_Cbk.o [1]
DID_F1D5_FDSProjectData_Default
                           0x1'1c04     0x8  Data  Gb  UDS_Cbk.o [1]
ExceptionTable$$Base         0x1800           --   Gb  - Linker created -
ExceptionTable$$Limit        0x1ac0           --   Gb  - Linker created -
FIRC_ClockConfigPB0_0      0x1'007c    0x18  Data  Lc  Mcu_PBcfg.o [1]
FLASH_CheckProtectAddr       0x6b93    0x38  Code  Lc  FLASH_Prg.o [1]
FLASH_EraseSector            0x6a3f    0x3a  Code  Gb  FLASH_Prg.o [1]
FLASH_GetAssociatedSectors
                             0x6aaf    0xe4  Code  Lc  FLASH_Prg.o [1]
FLASH_GetNextSectorAddr
                             0x6a97    0x18  Code  Gb  FLASH_Prg.o [1]
FLASH_Init                   0x692d    0x2e  Code  Gb  FLASH_Prg.o [1]
FLASH_LLD_EraseSector        0x98f3    0x1e  Code  Gb  FLASH_LLD.o [1]
FLASH_LLD_Init               0x98e5     0xe  Code  Gb  FLASH_LLD.o [1]
FLASH_LLD_WriteBuffer        0x9911    0x44  Code  Gb  FLASH_LLD.o [1]
FLASH_Read                   0x6a79    0x1e  Code  Gb  FLASH_Prg.o [1]
FLASH_WriteBuffer            0x695b    0xda  Code  Gb  FLASH_Prg.o [1]
FLS_EraseSector              0x1c01    0xb2  Code  Gb  FLS_S32K14X.o [1]
FLS_EraseSector_Infos   0x1fff'ba34     0x8  Data  Gb  FLS_S32K14X.o [1]
FLS_Init                     0xb951    0x6e  Code  Gb  FLS_S32K14X.o [1]
FLS_ProgramPhrase            0x1cb3    0xb6  Code  Gb  FLS_S32K14X.o [1]
FLS_ProgramPhrase_Infos
                        0x1fff'ba3c     0xc  Data  Gb  FLS_S32K14X.o [1]
FLS_Start                    0xb9bf     0xc  Code  Gb  FLS_S32K14X.o [1]
FLS_Status_T            0x1fff'ba18    0x1c  Data  Gb  FLS_S32K14X.o [1]
Flash_Rom$$Base              0x1c00           --   Gb  - Linker created -
Flash_Rom$$Limit             0x1d88           --   Gb  - Linker created -
FlexIODeviceAttributesConfigArray_PB0
                        0x2000'26b8     0x4  Data  Lc  Spi_PBcfg.o [1]
Fls_CopyDatas                0xb93f    0x12  Code  Lc  FLS_S32K14X.o [1]
Fls_Info                   0x1'001c     0xc  Data  Gb  FLASH_Cfg.o [1]
Fls_InitStructure            0xb929    0x16  Code  Lc  FLS_S32K14X.o [1]
HWUnitConfig_PB            0x1'1b50     0xc  Data  Lc  Spi_PBcfg.o [1]
InitNoInitRam                0x2421    0x1e  Code  Gb  board.o [1]
LPspiChannelAttributesConfig_PB0
                           0x1'1b1c    0x24  Data  Lc  Spi_PBcfg.o [1]
LPspiDeviceAttributesConfigArray_PB0
                        0x2000'2818     0x4  Data  Lc  Spi_PBcfg.o [1]
LPspiDeviceAttributesConfig_PB0
                        0x2000'280c     0xc  Data  Lc  Spi_PBcfg.o [1]
McuModuleConfiguration     0x1'0224    0x1c  Data  Gb  Mcu_PBcfg.o [1]
Mcu_ClockConfigPB0         0x1'01d4    0x14  Data  Lc  Mcu_PBcfg.o [1]
Mcu_DistributePllClock       0x29e1     0xa  Code  Gb  Mcu.o [1]
Mcu_GetPllStatus             0x29eb     0x4  Code  Gb  Mcu.o [1]
Mcu_HwIPsConfigPB0         0x1'0214    0x10  Data  Lc  Mcu_PBcfg.o [1]
Mcu_Init                     0x2971    0x56  Code  Gb  Mcu.o [1]
Mcu_InitClock                0x29c7    0x1a  Code  Gb  Mcu.o [1]
Mcu_Ipw_DistributePllClock
                             0x5321    0x16  Code  Gb  Mcu_IPW.o [1]
Mcu_Ipw_GetPllStatus         0x533d     0xe  Code  Gb  Mcu_IPW.o [1]
Mcu_Ipw_Init                 0x5295    0x20  Code  Gb  Mcu_IPW.o [1]
Mcu_Ipw_InitClock            0x52b5    0x6c  Code  Gb  Mcu_IPW.o [1]
Mcu_Mode_ConfigPB0         0x1'0038     0x8  Data  Lc  Mcu_PBcfg.o [1]
Mcu_PCC_PeripheralConfig
                             0x839d    0x40  Code  Gb  Mcu_PCC.o [1]
Mcu_PMC_PowerInit            0x8209    0x2c  Code  Gb  Mcu_PMC.o [1]
Mcu_RCM_ResetInit            0x81e9    0x1a  Code  Gb  Mcu_RCM.o [1]
Mcu_Ram_ConfigPB0          0x1'0028    0x10  Data  Lc  Mcu_PBcfg.o [1]
Mcu_SCG_DropSystemClockToSirc
                             0x8259    0x58  Code  Gb  Mcu_SCG.o [1]
Mcu_SCG_FircInit             0x8319    0x3a  Code  Gb  Mcu_SCG.o [1]
Mcu_SCG_GetPLLStatus         0x8377    0x10  Code  Gb  Mcu_SCG.o [1]
Mcu_SCG_SircInit             0x82e5    0x34  Code  Gb  Mcu_SCG.o [1]
Mcu_SCG_SoscInit             0x82b1    0x34  Code  Gb  Mcu_SCG.o [1]
Mcu_SCG_SpllInit             0x8353    0x24  Code  Gb  Mcu_SCG.o [1]
Mcu_SCG_SystemClockInit
                             0x8245    0x14  Code  Gb  Mcu_SCG.o [1]
Mcu_SIM_ClockConfig          0x81a1    0x34  Code  Gb  Mcu_SIM.o [1]
Mcu_SIM_Init                 0x815d    0x44  Code  Gb  Mcu_SIM.o [1]
Mcu_SMC_AllowedModesConfig
                             0x8235     0xc  Code  Gb  Mcu_SMC.o [1]
Mcu_au8ClockConfigIds   0x2000'2739     0x1  Data  Lc  Mcu.o [1]
Mcu_au8ModeConfigIds    0x2000'273a     0x1  Data  Lc  Mcu.o [1]
Mcu_au8RamConfigIds     0x2000'273b     0x1  Data  Lc  Mcu.o [1]
Mcu_pClockConfig        0x2000'27b8     0x4  Data  Lc  Mcu_IPW.o [1]
Mcu_pConfigPtr          0x2000'27b4     0x4  Data  Gb  Mcu.o [1]
MessageBufferConfigs0_PB
                             0xf480    0x54  Data  Lc  Can_PBcfg.o [1]
NCS_SdfVariableRangeError
                             0x237f     0x2  Code  Gb  APP_Prg.o [1]
PCC_ClockConfigPB0_0       0x1'01cc     0x8  Data  Lc  Mcu_PBcfg.o [1]
PCC_aRegistersConfigPB0_0
                           0x1'00cc   0x100  Data  Lc  Mcu_PBcfg.o [1]
PMC_ConfigPB0              0x1'020c     0x4  Data  Lc  Mcu_PBcfg.o [1]
PROG_AnswerSuccesiveCheckMemoryRequests
                             0x36bd    0x3c  Code  Gb  PROG_Prg.o [1]
PROG_BckdManage              0x4a35     0x8  Code  Gb  PROG_Prg.o [1]
PROG_CRC                     0x4713    0xe0  Code  Gb  PROG_Prg.o [1]
PROG_CRCSetParam             0x4909    0x2c  Code  Gb  PROG_Prg.o [1]
PROG_CRC_Compare             0x461b    0xc6  Code  Gb  PROG_Prg.o [1]
PROG_CalcCrc32               0x7ce9    0x58  Code  Gb  PROG_Cust_Crc.o [1]
PROG_CheckDFI                0x4b99    0x54  Code  Lc  PROG_Prg.o [1]
PROG_CheckMemory             0x374f    0x26  Code  Gb  PROG_Prg.o [1]
PROG_CheckPartialSegmentListCrc
                             0x56b5    0x54  Code  Gb  PROG_Cust_AppliCheck.o [1]
PROG_CheckProgRequest        0x6ea9    0x1e  Code  Gb  PROG_Cbk.o [1]
PROG_CheckProgrammingCounter
                             0x4f87    0x40  Code  Gb  PROG_Prg.o [1]
PROG_CheckProgrammingPreCondition
                             0x3671    0x48  Code  Gb  PROG_Prg.o [1]
PROG_CheckProgrammingRequest
                             0x553f    0x1a  Code  Gb  PROG_Cust_AppliCheck.o [1]
PROG_CheckSegmentListCrc
                             0x4edd    0x66  Code  Gb  PROG_Prg.o [1]
PROG_CheckValidAppl          0x553b     0x4  Code  Gb  PROG_Cust_AppliCheck.o [1]
PROG_CloseExtendedSession
                             0x38bf     0x8  Code  Gb  PROG_Prg.o [1]
PROG_CloseProgrammingSession
                             0x38b5     0xa  Code  Gb  PROG_Prg.o [1]
PROG_CoherencyCheck          0x4f81     0x6  Code  Gb  PROG_Prg.o [1]
PROG_CommunicationControl
                             0x3723    0x2c  Code  Gb  PROG_Prg.o [1]
PROG_ComputeTotalEncryptedDataWithAesCbcPkcs7
                             0x7ca1     0xe  Code  Gb  PROG_Encrypt.o [1]
PROG_ControlDTCSetting       0x3701    0x22  Code  Gb  PROG_Prg.o [1]
PROG_CsmCheckResult          0x7577    0x20  Code  Gb  PROG_Cry.o [1]
PROG_CsmDecryptionCheckResult
                             0x7caf    0x22  Code  Gb  PROG_Encrypt.o [1]
PROG_CsmDecryptionNotification
                             0x7c7b    0x20  Code  Lc  PROG_Encrypt.o [1]
PROG_CsmEncryptDecryptNotification
                             0x7b5d    0x30  Code  Gb  PROG_Encrypt.o [1]
PROG_CsmNotification         0x7477    0x2a  Code  Gb  PROG_Cry.o [1]
PROG_CsmSignatureCheckNotification
                             0x74a1    0x54  Code  Lc  PROG_Cry.o [1]
PROG_CustCheckProgPrecond
                             0x7033    0x12  Code  Gb  PROG_Cbk.o [1]
PROG_CustomClearPartProgSegList
                             0x716f    0x2c  Code  Gb  PROG_Cbk.o [1]
PROG_CustomCoherencyCheck
                             0x70ad    0x2e  Code  Gb  PROG_Cbk.o [1]
PROG_CustomDecryptGetInitVector
                             0x731d     0x2  Code  Gb  PROG_Cbk.o [1]
PROG_CustomDownloadNotification
                             0x71ef     0x4  Code  Gb  PROG_Cbk.o [1]
PROG_CustomGetAsymPublicKey
                             0x71d1     0xa  Code  Gb  PROG_Cbk.o [1]
PROG_CustomGetEraseStatus
                             0x71f3    0x16  Code  Gb  PROG_Cbk.o [1]
PROG_CustomGetFingerprint
                             0x719b    0x36  Code  Gb  PROG_Cbk.o [1]
PROG_CustomGetPartProgSegList
                             0x70ff    0x28  Code  Gb  PROG_Cbk.o [1]
PROG_CustomGetProgCounter
                             0x70db     0xc  Code  Gb  PROG_Cbk.o [1]
PROG_CustomGetResetCause
                             0x7027     0xc  Code  Gb  PROG_Cbk.o [1]
PROG_CustomGetSymDecryptionKey
                             0x7319     0x4  Code  Gb  PROG_Cbk.o [1]
PROG_CustomGetTpBsValue
                             0x71db    0x14  Code  Gb  PROG_Cbk.o [1]
PROG_CustomGetWriteFingerprintStatus
                             0x701b     0x4  Code  Gb  PROG_Cbk.o [1]
PROG_CustomIncrementProgCounter
                             0x70e7    0x18  Code  Gb  PROG_Cbk.o [1]
PROG_CustomMemoryAccessNotification
                             0x724d     0x4  Code  Gb  PROG_Cbk.o [1]
PROG_CustomSetDownloadVerificationSuccess
                             0x7045    0x66  Code  Gb  PROG_Cbk.o [1]
PROG_CustomSetEraseStatus
                             0x7209    0x44  Code  Gb  PROG_Cbk.o [1]
PROG_CustomSetPartProgSegList
                             0x7127    0x24  Code  Gb  PROG_Cbk.o [1]
PROG_CustomStoreResetCause
                             0x701f     0x8  Code  Gb  PROG_Cbk.o [1]
PROG_CustomWriteCRC          0x70ab     0x2  Code  Gb  PROG_Cbk.o [1]
PROG_CustomWriteFingerprint
                             0x6fc5    0x56  Code  Gb  PROG_Cbk.o [1]
PROG_Custom_PreCondCheckRoutine_Failed
                             0x7857     0xe  Code  Gb  PROG_Responses.o [1]
PROG_Custom_PreCondCheckRoutine_Succeed
                             0x7851     0x6  Code  Gb  PROG_Responses.o [1]
PROG_DecompInputParamInit
                             0x78a1     0xa  Code  Gb  PROG_Decomp.o [1]
PROG_DecompWriteDataConfirmation
                             0x7b11    0x26  Code  Gb  PROG_Decomp.o [1]
PROG_DecompressData          0x78ab   0x154  Code  Gb  PROG_Decomp.o [1]
PROG_DecompressInit          0x7865    0x3c  Code  Gb  PROG_Decomp.o [1]
PROG_DecryptionFinish        0x7c59    0x22  Code  Gb  PROG_Encrypt.o [1]
PROG_DecryptionStart         0x7bfd    0x36  Code  Gb  PROG_Encrypt.o [1]
PROG_DecryptionUpdate        0x7c33    0x26  Code  Gb  PROG_Encrypt.o [1]
PROG_DisableECCCheck         0x6edf     0x2  Code  Gb  PROG_Cbk.o [1]
PROG_Do_CoherencyCheck       0x4f43    0x3a  Code  Gb  PROG_Prg.o [1]
PROG_Do_DecryptionFinish
                             0x50dd    0x68  Code  Gb  PROG_Prg.o [1]
PROG_Do_DecryptionUpdate
                             0x51a9    0x42  Code  Gb  PROG_Prg.o [1]
PROG_Dsc01Cbk                0x377f    0x2e  Code  Gb  PROG_Prg.o [1]
PROG_Dsc03Cbk                0x37ad    0x10  Code  Gb  PROG_Prg.o [1]
PROG_EcuReset                0x36b9     0x4  Code  Gb  PROG_Prg.o [1]
PROG_EnableECCCheck          0x6ee1     0x2  Code  Gb  PROG_Cbk.o [1]
PROG_Entry_BLU_Resume        0x4e57     0x2  Code  Gb  PROG_Prg.o [1]
PROG_Entry_CheckMemory       0x4ded    0x62  Code  Gb  PROG_Prg.o [1]
PROG_Entry_CheckMemoryCompute
                             0x4ebb    0x1e  Code  Gb  PROG_Prg.o [1]
PROG_Entry_CheckMemoryFinish
                             0x4e59     0x4  Code  Gb  PROG_Prg.o [1]
PROG_Entry_CompareKey        0x3939    0x48  Code  Gb  PROG_Prg.o [1]
PROG_Entry_DecryptionFinish
                             0x503d    0x90  Code  Gb  PROG_Prg.o [1]
PROG_Entry_DecryptionUpdate
                             0x5161    0x48  Code  Gb  PROG_Prg.o [1]
PROG_Entry_DefaultSession
                             0x3893     0xa  Code  Gb  PROG_Prg.o [1]
PROG_Entry_EcuReset          0x3883     0xc  Code  Gb  PROG_Prg.o [1]
PROG_Entry_Erase             0x3ab1    0x3a  Code  Gb  PROG_Prg.o [1]
PROG_Entry_EraseCheck        0x39a1    0x86  Code  Gb  PROG_Prg.o [1]
PROG_Entry_EraseFinish       0x3af3     0x2  Code  Gb  PROG_Prg.o [1]
PROG_Entry_EraseNRC78        0x3aed     0x2  Code  Gb  PROG_Prg.o [1]
PROG_Entry_EraseTransmitNRC78
                             0x3aeb     0x2  Code  Gb  PROG_Prg.o [1]
PROG_Entry_ExtendedSession
                             0x38ad     0x2  Code  Gb  PROG_Prg.o [1]
PROG_Entry_GetSeed           0x38dd    0x38  Code  Gb  PROG_Prg.o [1]
PROG_Entry_INIT              0xedc5    0x3a  Code  Gb  PROG_Cust_Init.o [1]
PROG_Entry_PartialVerificationCrc
                             0x55bd    0xec  Code  Gb  PROG_Cust_AppliCheck.o [1]
PROG_Entry_PreInit           0xee0f    0x16  Code  Gb  PROG_Cust_Init.o [1]
PROG_Entry_ProgrammingSession
                             0x38a9     0x2  Code  Gb  PROG_Prg.o [1]
PROG_Entry_RD                0x3d8d    0xec  Code  Gb  PROG_Prg.o [1]
PROG_Entry_RD_Finish         0x3ecb    0x16  Code  Gb  PROG_Prg.o [1]
PROG_Entry_RD_Signature
                             0x3e79    0x52  Code  Gb  PROG_Prg.o [1]
PROG_Entry_RTE               0x44c1    0xa4  Code  Gb  PROG_Prg.o [1]
PROG_Entry_RTEDecompFinish
                             0x525d     0x2  Code  Gb  PROG_Prg.o [1]
PROG_Entry_RTEFailed         0x447f     0x8  Code  Gb  PROG_Prg.o [1]
PROG_Entry_RTEFinish         0x4579    0x94  Code  Gb  PROG_Prg.o [1]
PROG_Entry_Reset             0x388f     0x4  Code  Gb  PROG_Prg.o [1]
PROG_Entry_Sleep             0x37ef     0x4  Code  Gb  PROG_Prg.o [1]
PROG_Entry_Streaming         0x3f3d     0xa  Code  Gb  PROG_Prg.o [1]
PROG_Entry_TD                0x3ee1    0x38  Code  Gb  PROG_Prg.o [1]
PROG_Entry_TD_Failed         0x3fc5    0x20  Code  Gb  PROG_Prg.o [1]
PROG_Entry_Write             0x4011   0x142  Code  Gb  PROG_Prg.o [1]
PROG_Entry_WriteFingerprint
                             0x3813    0x3e  Code  Gb  PROG_Prg.o [1]
PROG_Erase                   0x3c23     0x2  Code  Gb  PROG_Prg.o [1]
PROG_EraseMemory             0x3665     0x4  Code  Gb  PROG_Prg.o [1]
PROG_EraseStatusCheck        0x3af5   0x102  Code  Lc  PROG_Prg.o [1]
PROG_Erase_ExtractBlockID
                             0x3a6b    0x46  Code  Lc  PROG_Prg.o [1]
PROG_Erase_Guard             0x3a37     0x4  Code  Gb  PROG_Prg.o [1]
PROG_Exit_CheckMemory        0x4e67    0x36  Code  Gb  PROG_Prg.o [1]
PROG_Exit_CheckMemoryFinish
                             0x4e5d     0x2  Code  Gb  PROG_Prg.o [1]
PROG_Exit_INIT               0xedff    0x10  Code  Gb  PROG_Cust_Init.o [1]
PROG_Exit_PartialVerificationCrc
                             0x56a9     0xc  Code  Gb  PROG_Cust_AppliCheck.o [1]
PROG_Exit_RTE_Decrypt        0x4487    0x26  Code  Gb  PROG_Prg.o [1]
PROG_Exit_TD_Write           0x4425    0x5a  Code  Gb  PROG_Prg.o [1]
PROG_ExtractEraseParameters
                             0x4cad   0x110  Code  Lc  PROG_Prg.o [1]
PROG_ExtractRDParameter
                             0x4b15    0x84  Code  Lc  PROG_Prg.o [1]
PROG_FindBlockIndexInTable
                             0x4c85    0x28  Code  Gb  PROG_Prg.o [1]
PROG_GenericRequest          0x35f7    0x28  Code  Gb  PROG_Prg.o [1]
PROG_GetActiveCurrentSession
                             0x37bd    0x20  Code  Gb  PROG_Prg.o [1]
PROG_GetCryptoState          0x7471     0x6  Code  Gb  PROG_Cry.o [1]
PROG_GetCryptoStatus         0x746b     0x6  Code  Gb  PROG_Cry.o [1]
PROG_GetDecompressedData
                             0x7a4f    0xb4  Code  Gb  PROG_Decomp.o [1]
PROG_GetDecryptionState
                             0x7b57     0x6  Code  Gb  PROG_Encrypt.o [1]
PROG_GetDecryptionStatus
                             0x7b51     0x6  Code  Gb  PROG_Encrypt.o [1]
PROG_GetPublicKey            0x74f5    0x6c  Code  Gb  PROG_Cry.o [1]
PROG_GetSecurityLevel        0x3999     0x8  Code  Gb  PROG_Prg.o [1]
PROG_GetSeed_Unlocked        0x3915    0x24  Code  Gb  PROG_Prg.o [1]
PROG_GetSegmentByBlockId
                             0x4ae5    0x28  Code  Gb  PROG_Prg.o [1]
PROG_GetSegmentBySegmentId
                             0x4a63    0x5e  Code  Gb  PROG_Prg.o [1]
PROG_GetSuppressBitFromAppli
                             0x6fb3    0x12  Code  Gb  PROG_Cbk.o [1]
PROG_GetSymDecryptionKey
                             0x7b8d    0x5c  Code  Gb  PROG_Encrypt.o [1]
PROG_GetTpParam              0x4fcd    0x20  Code  Gb  PROG_Prg.o [1]
PROG_Guard_Erase_Check_EraseFinish
                             0x3a3b    0x30  Code  Gb  PROG_Prg.o [1]
PROG_Guard_RD_Check_RTEFinish
                             0x3d13    0x7a  Code  Gb  PROG_Prg.o [1]
PROG_HsmDelFromQueue         0x769f    0x3e  Code  Lc  PROG_Hsm.o [1]
PROG_HsmDispatchEvent        0x77eb    0x66  Code  Lc  PROG_Hsm.o [1]
PROG_HsmEmitInst             0x760d    0x2a  Code  Gb  PROG_Hsm.o [1]
PROG_HsmEvCountersPROG  0x2000'0f3c    0x20  Data  Lc  PROG_HsmPROGData.o [1]
PROG_HsmEvQueuesPROG    0x2000'0f5c    0x20  Data  Lc  PROG_HsmPROGData.o [1]
PROG_HsmFindEvToDispatch
                             0x7779    0x72  Code  Lc  PROG_Hsm.o [1]
PROG_HsmInitInst             0x75b5    0x58  Code  Gb  PROG_Hsm.o [1]
PROG_HsmInitSubstates        0x773f    0x34  Code  Lc  PROG_Hsm.o [1]
PROG_HsmInstPROG        0x2000'0f7c     0x4  Data  Lc  PROG_HsmPROGData.o [1]
PROG_HsmMainInst             0x763f    0x60  Code  Gb  PROG_Hsm.o [1]
PROG_HsmPROGActions        0x1'0d64   0x228  Data  Lc  PROG_HsmPROGData.o [1]
PROG_HsmPROGGuards         0x1'0f8c    0x38  Data  Lc  PROG_HsmPROGData.o [1]
PROG_HsmPROGSfALIVEAction5
                             0xee49     0x4  Code  Gb  PROG_HsmPROGFnct.o [1]
PROG_HsmPROGSfBLU_PRE_RESETEntry
                             0xee5f     0x4  Code  Gb  PROG_HsmPROGFnct.o [1]
PROG_HsmPROGSfBLU_RESUMEEntry
                             0xee63     0x4  Code  Gb  PROG_HsmPROGFnct.o [1]
PROG_HsmPROGSfCHECK_MEMORYAction2
                             0xee6f     0x4  Code  Gb  PROG_HsmPROGFnct.o [1]
PROG_HsmPROGSfCHECK_MEMORYAction3
                             0xee73     0x4  Code  Gb  PROG_HsmPROGFnct.o [1]
PROG_HsmPROGSfCHECK_MEMORYDo
                             0xee6b     0x4  Code  Gb  PROG_HsmPROGFnct.o [1]
PROG_HsmPROGSfCHECK_MEMORYEntry
                             0xee67     0x4  Code  Gb  PROG_HsmPROGFnct.o [1]
PROG_HsmPROGSfCHECK_MEMORY_FINISHAction1
                             0xee7f     0x4  Code  Gb  PROG_HsmPROGFnct.o [1]
PROG_HsmPROGSfCHECK_MEMORY_FINISHEntry
                             0xee77     0x4  Code  Gb  PROG_HsmPROGFnct.o [1]
PROG_HsmPROGSfCHECK_MEMORY_FINISHExit
                             0xee7b     0x4  Code  Gb  PROG_HsmPROGFnct.o [1]
PROG_HsmPROGSfCHECK_MEMORY_FINISHGuard3
                             0xee83     0x4  Code  Gb  PROG_HsmPROGFnct.o [1]
PROG_HsmPROGSfCHECK_MEMORY_FINISHGuard4
                             0xee87     0x8  Code  Gb  PROG_HsmPROGFnct.o [1]
PROG_HsmPROGSfCHECK_MEMORY_TOPAction1
                             0xee4d     0x2  Code  Gb  PROG_HsmPROGFnct.o [1]
PROG_HsmPROGSfCHECK_MEMORY_TOPAction2
                             0xee4f     0x4  Code  Gb  PROG_HsmPROGFnct.o [1]
PROG_HsmPROGSfCHECK_MEMORY_TOPAction4
                             0xee55     0x2  Code  Gb  PROG_HsmPROGFnct.o [1]
PROG_HsmPROGSfCHECK_MEMORY_TOPAction5
                             0xee5d     0x2  Code  Gb  PROG_HsmPROGFnct.o [1]
PROG_HsmPROGSfCOHERENCY_CHECKDo
                             0xeeb7     0x4  Code  Gb  PROG_HsmPROGFnct.o [1]
PROG_HsmPROGSfCOHERENCY_CHECK_FINISHAction1
                             0xeebb     0x2  Code  Gb  PROG_HsmPROGFnct.o [1]
PROG_HsmPROGSfCOHERENCY_CHECK_TOPAction1
                             0xee97     0x2  Code  Gb  PROG_HsmPROGFnct.o [1]
PROG_HsmPROGSfCOHERENCY_CHECK_TOPAction3
                             0xeea7     0x4  Code  Gb  PROG_HsmPROGFnct.o [1]
PROG_HsmPROGSfCOHERENCY_CHECK_TOPAction6
                             0xeeb3     0x2  Code  Gb  PROG_HsmPROGFnct.o [1]
PROG_HsmPROGSfCOHERENCY_CHECK_TOPAction7
                             0xeeb5     0x2  Code  Gb  PROG_HsmPROGFnct.o [1]
PROG_HsmPROGSfCOHERENCY_CHECK_TOPGuard2
                             0xee99     0x2  Code  Gb  PROG_HsmPROGFnct.o [1]
PROG_HsmPROGSfCOHERENCY_CHECK_TOPGuard5
                             0xeeab     0x8  Code  Gb  PROG_HsmPROGFnct.o [1]
PROG_HsmPROGSfCOMPARE_KEYAction1
                             0xeec1     0x2  Code  Gb  PROG_HsmPROGFnct.o [1]
PROG_HsmPROGSfCOMPARE_KEYAction2
                             0xeec3     0x2  Code  Gb  PROG_HsmPROGFnct.o [1]
PROG_HsmPROGSfCOMPARE_KEYAction3
                             0xeec5     0x2  Code  Gb  PROG_HsmPROGFnct.o [1]
PROG_HsmPROGSfCOMPARE_KEYAction4
                             0xeec7     0x2  Code  Gb  PROG_HsmPROGFnct.o [1]
PROG_HsmPROGSfCOMPARE_KEYAction5
                             0xeec9     0x4  Code  Gb  PROG_HsmPROGFnct.o [1]
PROG_HsmPROGSfCOMPARE_KEYAction7
                             0xeecd     0x2  Code  Gb  PROG_HsmPROGFnct.o [1]
PROG_HsmPROGSfCOMPARE_KEYAction8
                             0xeecf     0x2  Code  Gb  PROG_HsmPROGFnct.o [1]
PROG_HsmPROGSfCOMPARE_KEYAction9
                             0xeed1     0x2  Code  Gb  PROG_HsmPROGFnct.o [1]
PROG_HsmPROGSfCOMPARE_KEYEntry
                             0xeebd     0x4  Code  Gb  PROG_HsmPROGFnct.o [1]
PROG_HsmPROGSfDECRYPT_FINISHDo
                             0xeffb     0x4  Code  Gb  PROG_HsmPROGFnct.o [1]
PROG_HsmPROGSfDECRYPT_FINISHEntry
                             0xeff7     0x4  Code  Gb  PROG_HsmPROGFnct.o [1]
PROG_HsmPROGSfDECRYPT_UPDATEDo
                             0xf003     0x4  Code  Gb  PROG_HsmPROGFnct.o [1]
PROG_HsmPROGSfDECRYPT_UPDATEEntry
                             0xefff     0x4  Code  Gb  PROG_HsmPROGFnct.o [1]
PROG_HsmPROGSfDEFAULT_SESSIONEntry
                             0xeed3     0x4  Code  Gb  PROG_HsmPROGFnct.o [1]
PROG_HsmPROGSfECU_RESETEntry
                             0xeed7     0x4  Code  Gb  PROG_HsmPROGFnct.o [1]
PROG_HsmPROGSfERASEDo        0xeef9     0x4  Code  Gb  PROG_HsmPROGFnct.o [1]
PROG_HsmPROGSfERASEEntry
                             0xeef5     0x4  Code  Gb  PROG_HsmPROGFnct.o [1]
PROG_HsmPROGSfERASE_CHECKEntry
                             0xeefd     0x4  Code  Gb  PROG_HsmPROGFnct.o [1]
PROG_HsmPROGSfERASE_FINISHEntry
                             0xef01     0x4  Code  Gb  PROG_HsmPROGFnct.o [1]
PROG_HsmPROGSfERASE_FINISHGuard1
                             0xef05     0x8  Code  Gb  PROG_HsmPROGFnct.o [1]
PROG_HsmPROGSfERASE_FINISHGuard2
                             0xef0d     0x8  Code  Gb  PROG_HsmPROGFnct.o [1]
PROG_HsmPROGSfERASE_NRC78Entry
                             0xef15     0x4  Code  Gb  PROG_HsmPROGFnct.o [1]
PROG_HsmPROGSfERASE_TOPAction1
                             0xeedb     0x2  Code  Gb  PROG_HsmPROGFnct.o [1]
PROG_HsmPROGSfERASE_TOPAction2
                             0xeedd     0x2  Code  Gb  PROG_HsmPROGFnct.o [1]
PROG_HsmPROGSfERASE_TOPAction3
                             0xeedf     0x2  Code  Gb  PROG_HsmPROGFnct.o [1]
PROG_HsmPROGSfERASE_TOPAction4
                             0xeee1     0x4  Code  Gb  PROG_HsmPROGFnct.o [1]
PROG_HsmPROGSfERASE_TOPAction5
                             0xeee5     0x2  Code  Gb  PROG_HsmPROGFnct.o [1]
PROG_HsmPROGSfERASE_TOPAction6
                             0xeee7     0x2  Code  Gb  PROG_HsmPROGFnct.o [1]
PROG_HsmPROGSfERASE_TOPAction7
                             0xeee9     0x2  Code  Gb  PROG_HsmPROGFnct.o [1]
PROG_HsmPROGSfERASE_TOPAction8
                             0xeeed     0x2  Code  Gb  PROG_HsmPROGFnct.o [1]
PROG_HsmPROGSfERASE_TRANSMITNRC78Entry
                             0xef19     0x4  Code  Gb  PROG_HsmPROGFnct.o [1]
PROG_HsmPROGSfEXT_SESSIONEntry
                             0xef1d     0x4  Code  Gb  PROG_HsmPROGFnct.o [1]
PROG_HsmPROGSfGET_SEEDAction1
                             0xef25     0x2  Code  Gb  PROG_HsmPROGFnct.o [1]
PROG_HsmPROGSfGET_SEEDAction2
                             0xef27     0x2  Code  Gb  PROG_HsmPROGFnct.o [1]
PROG_HsmPROGSfGET_SEEDAction4
                             0xef29     0x4  Code  Gb  PROG_HsmPROGFnct.o [1]
PROG_HsmPROGSfGET_SEEDAction5
                             0xef2d     0x2  Code  Gb  PROG_HsmPROGFnct.o [1]
PROG_HsmPROGSfGET_SEEDAction6
                             0xef2f     0x2  Code  Gb  PROG_HsmPROGFnct.o [1]
PROG_HsmPROGSfGET_SEEDEntry
                             0xef21     0x4  Code  Gb  PROG_HsmPROGFnct.o [1]
PROG_HsmPROGSfINITEntry
                             0xef31     0x4  Code  Gb  PROG_HsmPROGFnct.o [1]
PROG_HsmPROGSfINITExit       0xef35     0x4  Code  Gb  PROG_HsmPROGFnct.o [1]
PROG_HsmPROGSfLOCKEDAction1
                             0xef39     0x2  Code  Gb  PROG_HsmPROGFnct.o [1]
PROG_HsmPROGSfLOCKEDAction2
                             0xef3b     0x2  Code  Gb  PROG_HsmPROGFnct.o [1]
PROG_HsmPROGSfLOCKEDAction3
                             0xef3d     0x2  Code  Gb  PROG_HsmPROGFnct.o [1]
PROG_HsmPROGSfLOCKEDAction5
                             0xef3f     0x2  Code  Gb  PROG_HsmPROGFnct.o [1]
PROG_HsmPROGSfLOCKEDAction6
                             0xef41     0x2  Code  Gb  PROG_HsmPROGFnct.o [1]
PROG_HsmPROGSfPRE_INITDo
                             0xf05f     0x4  Code  Gb  PROG_HsmPROGFnct.o [1]
PROG_HsmPROGSfPRE_INITEntry
                             0xf05b     0x4  Code  Gb  PROG_HsmPROGFnct.o [1]
PROG_HsmPROGSfPROG_SESSIONAction2
                             0xef47     0x2  Code  Gb  PROG_HsmPROGFnct.o [1]
PROG_HsmPROGSfPROG_SESSIONAction3
                             0xef49     0x2  Code  Gb  PROG_HsmPROGFnct.o [1]
PROG_HsmPROGSfPROG_SESSIONAction4
                             0xef4b     0x2  Code  Gb  PROG_HsmPROGFnct.o [1]
PROG_HsmPROGSfPROG_SESSIONAction6
                             0xef4d     0x2  Code  Gb  PROG_HsmPROGFnct.o [1]
PROG_HsmPROGSfPROG_SESSIONAction7
                             0xef4f     0x2  Code  Gb  PROG_HsmPROGFnct.o [1]
PROG_HsmPROGSfPROG_SESSIONEntry
                             0xef43     0x4  Code  Gb  PROG_HsmPROGFnct.o [1]
PROG_HsmPROGSfRDEntry        0xef65     0x4  Code  Gb  PROG_HsmPROGFnct.o [1]
PROG_HsmPROGSfRD_FINISHEntry
                             0xef69     0x4  Code  Gb  PROG_HsmPROGFnct.o [1]
PROG_HsmPROGSfRD_SIGNATUREEntry
                             0xef6d     0x4  Code  Gb  PROG_HsmPROGFnct.o [1]
PROG_HsmPROGSfRD_TOPAction1
                             0xef5f     0x2  Code  Gb  PROG_HsmPROGFnct.o [1]
PROG_HsmPROGSfRD_TOPAction2
                             0xef61     0x2  Code  Gb  PROG_HsmPROGFnct.o [1]
PROG_HsmPROGSfRD_TOPAction3
                             0xef63     0x2  Code  Gb  PROG_HsmPROGFnct.o [1]
PROG_HsmPROGSfREPROGAction1
                             0xef51     0x2  Code  Gb  PROG_HsmPROGFnct.o [1]
PROG_HsmPROGSfREPROGAction2
                             0xef53     0x2  Code  Gb  PROG_HsmPROGFnct.o [1]
PROG_HsmPROGSfREPROGAction3
                             0xef55     0x2  Code  Gb  PROG_HsmPROGFnct.o [1]
PROG_HsmPROGSfREPROGAction4
                             0xef57     0x2  Code  Gb  PROG_HsmPROGFnct.o [1]
PROG_HsmPROGSfREPROGAction5
                             0xef59     0x2  Code  Gb  PROG_HsmPROGFnct.o [1]
PROG_HsmPROGSfREPROGAction6
                             0xef5b     0x2  Code  Gb  PROG_HsmPROGFnct.o [1]
PROG_HsmPROGSfREPROGAction7
                             0xef5d     0x2  Code  Gb  PROG_HsmPROGFnct.o [1]
PROG_HsmPROGSfRESETEntry
                             0xf013     0x4  Code  Gb  PROG_HsmPROGFnct.o [1]
PROG_HsmPROGSfRTEDo          0xef79     0x4  Code  Gb  PROG_HsmPROGFnct.o [1]
PROG_HsmPROGSfRTEEntry       0xef75     0x4  Code  Gb  PROG_HsmPROGFnct.o [1]
PROG_HsmPROGSfRTE_DECOMPExit
                             0xef7d     0x4  Code  Gb  PROG_HsmPROGFnct.o [1]
PROG_HsmPROGSfRTE_DECOMP_FINISHEntry
                             0xef81     0x4  Code  Gb  PROG_HsmPROGFnct.o [1]
PROG_HsmPROGSfRTE_DECOMP_WRITEDo
                             0xef89     0x4  Code  Gb  PROG_HsmPROGFnct.o [1]
PROG_HsmPROGSfRTE_DECOMP_WRITEEntry
                             0xef85     0x4  Code  Gb  PROG_HsmPROGFnct.o [1]
PROG_HsmPROGSfRTE_DECOMP_WRITE_CHECKEntry
                             0xef8d     0x4  Code  Gb  PROG_HsmPROGFnct.o [1]
PROG_HsmPROGSfRTE_DECRYPTExit
                             0xef91     0x4  Code  Gb  PROG_HsmPROGFnct.o [1]
PROG_HsmPROGSfRTE_DECRYPT_FINISHDo
                             0xef99     0x4  Code  Gb  PROG_HsmPROGFnct.o [1]
PROG_HsmPROGSfRTE_DECRYPT_FINISHEntry
                             0xef95     0x4  Code  Gb  PROG_HsmPROGFnct.o [1]
PROG_HsmPROGSfRTE_FAILEDAction1
                             0xefad     0x2  Code  Gb  PROG_HsmPROGFnct.o [1]
PROG_HsmPROGSfRTE_FAILEDEntry
                             0xefa9     0x4  Code  Gb  PROG_HsmPROGFnct.o [1]
PROG_HsmPROGSfRTE_FAILEDGuard2
                             0xefaf     0x4  Code  Gb  PROG_HsmPROGFnct.o [1]
PROG_HsmPROGSfRTE_FAILEDGuard3
                             0xefb3     0x8  Code  Gb  PROG_HsmPROGFnct.o [1]
PROG_HsmPROGSfRTE_FINISHAction2
                             0xefbf     0x2  Code  Gb  PROG_HsmPROGFnct.o [1]
PROG_HsmPROGSfRTE_FINISHEntry
                             0xefbb     0x4  Code  Gb  PROG_HsmPROGFnct.o [1]
PROG_HsmPROGSfRTE_FINISHGuard3
                             0xefc1     0x8  Code  Gb  PROG_HsmPROGFnct.o [1]
PROG_HsmPROGSfRTE_TOPAction1
                             0xef71     0x2  Code  Gb  PROG_HsmPROGFnct.o [1]
PROG_HsmPROGSfRTE_TOPAction2
                             0xef73     0x2  Code  Gb  PROG_HsmPROGFnct.o [1]
PROG_HsmPROGSfRTE_WRITEDo
                             0xefa1     0x4  Code  Gb  PROG_HsmPROGFnct.o [1]
PROG_HsmPROGSfRTE_WRITEEntry
                             0xef9d     0x4  Code  Gb  PROG_HsmPROGFnct.o [1]
PROG_HsmPROGSfRTE_WRITE_CHECKDo
                             0xefa5     0x4  Code  Gb  PROG_HsmPROGFnct.o [1]
PROG_HsmPROGSfSIGNATURE_CHECKEntry
                             0xee8f     0x4  Code  Gb  PROG_HsmPROGFnct.o [1]
PROG_HsmPROGSfSIGNATURE_CHECKExit
                             0xee93     0x4  Code  Gb  PROG_HsmPROGFnct.o [1]
PROG_HsmPROGSfSLEEPEntry
                             0xf063     0x4  Code  Gb  PROG_HsmPROGFnct.o [1]
PROG_HsmPROGSfTDEntry        0xefcd     0x4  Code  Gb  PROG_HsmPROGFnct.o [1]
PROG_HsmPROGSfTD_CRCAction1
                             0xefd5     0x2  Code  Gb  PROG_HsmPROGFnct.o [1]
PROG_HsmPROGSfTD_CRCDo       0xefd1     0x4  Code  Gb  PROG_HsmPROGFnct.o [1]
PROG_HsmPROGSfTD_FAILEDEntry
                             0xefd7     0x4  Code  Gb  PROG_HsmPROGFnct.o [1]
PROG_HsmPROGSfTD_FAILEDGuard1
                             0xefdb     0x4  Code  Gb  PROG_HsmPROGFnct.o [1]
PROG_HsmPROGSfTD_FAILEDGuard2
                             0xefdf     0x8  Code  Gb  PROG_HsmPROGFnct.o [1]
PROG_HsmPROGSfTD_STREAMINGEntry
                             0xefe7     0x4  Code  Gb  PROG_HsmPROGFnct.o [1]
PROG_HsmPROGSfTD_TOPAction2
                             0xefc9     0x2  Code  Gb  PROG_HsmPROGFnct.o [1]
PROG_HsmPROGSfTD_TOPAction3
                             0xefcb     0x2  Code  Gb  PROG_HsmPROGFnct.o [1]
PROG_HsmPROGSfTD_WRITEAction1
                             0xefef     0x4  Code  Gb  PROG_HsmPROGFnct.o [1]
PROG_HsmPROGSfTD_WRITEAction2
                             0xeff3     0x4  Code  Gb  PROG_HsmPROGFnct.o [1]
PROG_HsmPROGSfTD_WRITEExit
                             0xefeb     0x4  Code  Gb  PROG_HsmPROGFnct.o [1]
PROG_HsmPROGSfVERIFY_PARTIAL_SW_CHECKSUMAction1
                             0xf031     0x4  Code  Gb  PROG_HsmPROGFnct.o [1]
PROG_HsmPROGSfVERIFY_PARTIAL_SW_CHECKSUMAction2
                             0xf035     0x4  Code  Gb  PROG_HsmPROGFnct.o [1]
PROG_HsmPROGSfVERIFY_PARTIAL_SW_CHECKSUMDo
                             0xf02d     0x4  Code  Gb  PROG_HsmPROGFnct.o [1]
PROG_HsmPROGSfVERIFY_PARTIAL_SW_CHECKSUMEntry
                             0xf029     0x4  Code  Gb  PROG_HsmPROGFnct.o [1]
PROG_HsmPROGSfVERIFY_PARTIAL_SW_CHECKSUM_TOPAction1
                             0xf01b     0x2  Code  Gb  PROG_HsmPROGFnct.o [1]
PROG_HsmPROGSfVERIFY_PARTIAL_SW_CHECKSUM_TOPAction3
                             0xf01d     0x2  Code  Gb  PROG_HsmPROGFnct.o [1]
PROG_HsmPROGSfVERIFY_PARTIAL_SW_CHECKSUM_TOPAction6
                             0xf023     0x2  Code  Gb  PROG_HsmPROGFnct.o [1]
PROG_HsmPROGSfVERIFY_PARTIAL_SW_CHECKSUM_TOPAction7
                             0xf025     0x2  Code  Gb  PROG_HsmPROGFnct.o [1]
PROG_HsmPROGSfVERIFY_PARTIAL_SW_CHECKSUM_TOPAction8
                             0xf027     0x2  Code  Gb  PROG_HsmPROGFnct.o [1]
PROG_HsmPROGSfVERIFY_PARTIAL_SW_CHECKSUM_TOPExit
                             0xf017     0x4  Code  Gb  PROG_HsmPROGFnct.o [1]
PROG_HsmPROGSfVERIFY_PARTIAL_SW_CHECKSUM_TOPGuard4
                             0xf01f     0x4  Code  Gb  PROG_HsmPROGFnct.o [1]
PROG_HsmPROGSfWFP_FINISHEDGuard1
                             0xf047     0x4  Code  Gb  PROG_HsmPROGFnct.o [1]
PROG_HsmPROGSfWFP_FINISHEDGuard2
                             0xf04b     0x8  Code  Gb  PROG_HsmPROGFnct.o [1]
PROG_HsmPROGSfWFP_INPROGRESSDo
                             0xf057     0x4  Code  Gb  PROG_HsmPROGFnct.o [1]
PROG_HsmPROGSfWFP_INPROGRESSEntry
                             0xf053     0x4  Code  Gb  PROG_HsmPROGFnct.o [1]
PROG_HsmPROGSfWRITEDo        0xf00b     0x4  Code  Gb  PROG_HsmPROGFnct.o [1]
PROG_HsmPROGSfWRITEEntry
                             0xf007     0x4  Code  Gb  PROG_HsmPROGFnct.o [1]
PROG_HsmPROGSfWRITE_CHECKDo
                             0xf00f     0x4  Code  Gb  PROG_HsmPROGFnct.o [1]
PROG_HsmPROGSfWRITE_FINGERPRINTAction1
                             0xf039     0x2  Code  Gb  PROG_HsmPROGFnct.o [1]
PROG_HsmPROGSfWRITE_FINGERPRINTAction2
                             0xf03b     0x2  Code  Gb  PROG_HsmPROGFnct.o [1]
PROG_HsmPROGSfWRITE_FINGERPRINTAction3
                             0xf03d     0x2  Code  Gb  PROG_HsmPROGFnct.o [1]
PROG_HsmPROGSfWRITE_FINGERPRINTAction4
                             0xf03f     0x4  Code  Gb  PROG_HsmPROGFnct.o [1]
PROG_HsmPROGSfWRITE_FINGERPRINTAction6
                             0xf043     0x2  Code  Gb  PROG_HsmPROGFnct.o [1]
PROG_HsmPROGSfWRITE_FINGERPRINTAction7
                             0xf045     0x2  Code  Gb  PROG_HsmPROGFnct.o [1]
PROG_HsmScPROG             0x1'19e8    0x1c  Data  Gb  PROG_HsmPROGData.o [1]
PROG_HsmScdPROG            0x1'1524   0x4c4  Data  Lc  PROG_HsmPROGData.o [1]
PROG_HsmTrALIVE            0x1'0fc4    0x38  Data  Lc  PROG_HsmPROGData.o [1]
PROG_HsmTrALIVESteps1      0x1'1fd2     0x1  Data  Lc  PROG_HsmPROGData.o [1]
PROG_HsmTrALIVESteps2      0x1'1fd3     0x1  Data  Lc  PROG_HsmPROGData.o [1]
PROG_HsmTrALIVESteps3      0x1'1fd4     0x1  Data  Lc  PROG_HsmPROGData.o [1]
PROG_HsmTrALIVESteps4      0x1'1fd5     0x1  Data  Lc  PROG_HsmPROGData.o [1]
PROG_HsmTrALIVESteps5      0x1'1fd6     0x1  Data  Lc  PROG_HsmPROGData.o [1]
PROG_HsmTrALIVESteps6      0x1'1fd7     0x1  Data  Lc  PROG_HsmPROGData.o [1]
PROG_HsmTrALIVESteps7      0x1'1fd8     0x1  Data  Lc  PROG_HsmPROGData.o [1]
PROG_HsmTrBLU_PRE_RESET
                           0x1'102c     0x8  Data  Lc  PROG_HsmPROGData.o [1]
PROG_HsmTrBLU_PRE_RESETSteps1
                           0x1'1fdd     0x1  Data  Lc  PROG_HsmPROGData.o [1]
PROG_HsmTrBLU_RESUME       0x1'1034     0x8  Data  Lc  PROG_HsmPROGData.o [1]
PROG_HsmTrBLU_RESUMESteps1
                           0x1'1fde     0x1  Data  Lc  PROG_HsmPROGData.o [1]
PROG_HsmTrCHECK_MEMORY     0x1'103c    0x20  Data  Lc  PROG_HsmPROGData.o [1]
PROG_HsmTrCHECK_MEMORYSteps1
                           0x1'1fdf     0x1  Data  Lc  PROG_HsmPROGData.o [1]
PROG_HsmTrCHECK_MEMORYSteps2
                           0x1'1fe0     0x1  Data  Lc  PROG_HsmPROGData.o [1]
PROG_HsmTrCHECK_MEMORYSteps3
                           0x1'1f96     0x2  Data  Lc  PROG_HsmPROGData.o [1]
PROG_HsmTrCHECK_MEMORYSteps4
                           0x1'1fe1     0x1  Data  Lc  PROG_HsmPROGData.o [1]
PROG_HsmTrCHECK_MEMORY_FINISH
                           0x1'105c    0x20  Data  Lc  PROG_HsmPROGData.o [1]
PROG_HsmTrCHECK_MEMORY_FINISHSteps1
                           0x1'1fe2     0x1  Data  Lc  PROG_HsmPROGData.o [1]
PROG_HsmTrCHECK_MEMORY_FINISHSteps2
                           0x1'1fe3     0x1  Data  Lc  PROG_HsmPROGData.o [1]
PROG_HsmTrCHECK_MEMORY_FINISHSteps3
                           0x1'1fe4     0x1  Data  Lc  PROG_HsmPROGData.o [1]
PROG_HsmTrCHECK_MEMORY_FINISHSteps4
                           0x1'1fe5     0x1  Data  Lc  PROG_HsmPROGData.o [1]
PROG_HsmTrCHECK_MEMORY_TOP
                           0x1'0ffc    0x30  Data  Lc  PROG_HsmPROGData.o [1]
PROG_HsmTrCHECK_MEMORY_TOPSteps1
                           0x1'1fd9     0x1  Data  Lc  PROG_HsmPROGData.o [1]
PROG_HsmTrCHECK_MEMORY_TOPSteps2
                           0x1'1fda     0x1  Data  Lc  PROG_HsmPROGData.o [1]
PROG_HsmTrCHECK_MEMORY_TOPSteps4
                           0x1'1fdb     0x1  Data  Lc  PROG_HsmPROGData.o [1]
PROG_HsmTrCHECK_MEMORY_TOPSteps5
                           0x1'1fdc     0x1  Data  Lc  PROG_HsmPROGData.o [1]
PROG_HsmTrCOHERENCY_CHECK
                           0x1'10cc     0x8  Data  Lc  PROG_HsmPROGData.o [1]
PROG_HsmTrCOHERENCY_CHECK_FINISH
                           0x1'10d4    0x10  Data  Lc  PROG_HsmPROGData.o [1]
PROG_HsmTrCOHERENCY_CHECK_FINISHSteps1
                           0x1'1fea     0x1  Data  Lc  PROG_HsmPROGData.o [1]
PROG_HsmTrCOHERENCY_CHECK_TOP
                           0x1'108c    0x40  Data  Lc  PROG_HsmPROGData.o [1]
PROG_HsmTrCOHERENCY_CHECK_TOPSteps1
                           0x1'1fe6     0x1  Data  Lc  PROG_HsmPROGData.o [1]
PROG_HsmTrCOHERENCY_CHECK_TOPSteps3
                           0x1'1fe7     0x1  Data  Lc  PROG_HsmPROGData.o [1]
PROG_HsmTrCOHERENCY_CHECK_TOPSteps6
                           0x1'1fe8     0x1  Data  Lc  PROG_HsmPROGData.o [1]
PROG_HsmTrCOHERENCY_CHECK_TOPSteps7
                           0x1'1fe9     0x1  Data  Lc  PROG_HsmPROGData.o [1]
PROG_HsmTrCOMPARE_KEY      0x1'10e4    0x58  Data  Lc  PROG_HsmPROGData.o [1]
PROG_HsmTrCOMPARE_KEYSteps1
                           0x1'1feb     0x1  Data  Lc  PROG_HsmPROGData.o [1]
PROG_HsmTrCOMPARE_KEYSteps2
                           0x1'1fec     0x1  Data  Lc  PROG_HsmPROGData.o [1]
PROG_HsmTrCOMPARE_KEYSteps3
                           0x1'1fed     0x1  Data  Lc  PROG_HsmPROGData.o [1]
PROG_HsmTrCOMPARE_KEYSteps4
                           0x1'1fee     0x1  Data  Lc  PROG_HsmPROGData.o [1]
PROG_HsmTrCOMPARE_KEYSteps5
                           0x1'1fef     0x1  Data  Lc  PROG_HsmPROGData.o [1]
PROG_HsmTrCOMPARE_KEYSteps7
                           0x1'1ff0     0x1  Data  Lc  PROG_HsmPROGData.o [1]
PROG_HsmTrCOMPARE_KEYSteps8
                           0x1'1ff1     0x1  Data  Lc  PROG_HsmPROGData.o [1]
PROG_HsmTrCOMPARE_KEYSteps9
                           0x1'1ff2     0x1  Data  Lc  PROG_HsmPROGData.o [1]
PROG_HsmTrDECRYPT_FINISH
                           0x1'141c    0x10  Data  Lc  PROG_HsmPROGData.o [1]
PROG_HsmTrDECRYPT_FINISHSteps1
                           0x1'2039     0x1  Data  Lc  PROG_HsmPROGData.o [1]
PROG_HsmTrDECRYPT_UPDATE
                           0x1'142c     0x8  Data  Lc  PROG_HsmPROGData.o [1]
PROG_HsmTrDEFAULT_SESSION
                           0x1'113c     0x8  Data  Lc  PROG_HsmPROGData.o [1]
PROG_HsmTrDEFAULT_SESSIONSteps1
                           0x1'1ff3     0x1  Data  Lc  PROG_HsmPROGData.o [1]
PROG_HsmTrECU_RESET        0x1'1144     0x8  Data  Lc  PROG_HsmPROGData.o [1]
PROG_HsmTrECU_RESETSteps1
                           0x1'1ff4     0x1  Data  Lc  PROG_HsmPROGData.o [1]
PROG_HsmTrERASE            0x1'118c    0x10  Data  Lc  PROG_HsmPROGData.o [1]
PROG_HsmTrERASESteps1      0x1'1ffd     0x1  Data  Lc  PROG_HsmPROGData.o [1]
PROG_HsmTrERASESteps2      0x1'1ffe     0x1  Data  Lc  PROG_HsmPROGData.o [1]
PROG_HsmTrERASE_CHECK      0x1'119c    0x10  Data  Lc  PROG_HsmPROGData.o [1]
PROG_HsmTrERASE_CHECKSteps1
                           0x1'1fff     0x1  Data  Lc  PROG_HsmPROGData.o [1]
PROG_HsmTrERASE_CHECKSteps2
                           0x1'2000     0x1  Data  Lc  PROG_HsmPROGData.o [1]
PROG_HsmTrERASE_FINISH     0x1'11ac    0x10  Data  Lc  PROG_HsmPROGData.o [1]
PROG_HsmTrERASE_NRC78      0x1'11bc     0x8  Data  Lc  PROG_HsmPROGData.o [1]
PROG_HsmTrERASE_NRC78Steps1
                           0x1'2001     0x1  Data  Lc  PROG_HsmPROGData.o [1]
PROG_HsmTrERASE_TOP        0x1'114c    0x40  Data  Lc  PROG_HsmPROGData.o [1]
PROG_HsmTrERASE_TOPSteps1
                           0x1'1ff5     0x1  Data  Lc  PROG_HsmPROGData.o [1]
PROG_HsmTrERASE_TOPSteps2
                           0x1'1ff6     0x1  Data  Lc  PROG_HsmPROGData.o [1]
PROG_HsmTrERASE_TOPSteps3
                           0x1'1ff7     0x1  Data  Lc  PROG_HsmPROGData.o [1]
PROG_HsmTrERASE_TOPSteps4
                           0x1'1ff8     0x1  Data  Lc  PROG_HsmPROGData.o [1]
PROG_HsmTrERASE_TOPSteps5
                           0x1'1ff9     0x1  Data  Lc  PROG_HsmPROGData.o [1]
PROG_HsmTrERASE_TOPSteps6
                           0x1'1ffa     0x1  Data  Lc  PROG_HsmPROGData.o [1]
PROG_HsmTrERASE_TOPSteps7
                           0x1'1ffb     0x1  Data  Lc  PROG_HsmPROGData.o [1]
PROG_HsmTrERASE_TOPSteps8
                           0x1'1ffc     0x1  Data  Lc  PROG_HsmPROGData.o [1]
PROG_HsmTrERASE_TRANSMITNRC78
                           0x1'11c4     0x8  Data  Lc  PROG_HsmPROGData.o [1]
PROG_HsmTrERASE_TRANSMITNRC78Steps1
                           0x1'2002     0x1  Data  Lc  PROG_HsmPROGData.o [1]
PROG_HsmTrEXT_SESSION      0x1'11cc     0x8  Data  Lc  PROG_HsmPROGData.o [1]
PROG_HsmTrGET_SEED         0x1'11d4    0x38  Data  Lc  PROG_HsmPROGData.o [1]
PROG_HsmTrGET_SEEDSteps1
                           0x1'2003     0x1  Data  Lc  PROG_HsmPROGData.o [1]
PROG_HsmTrGET_SEEDSteps2
                           0x1'2004     0x1  Data  Lc  PROG_HsmPROGData.o [1]
PROG_HsmTrGET_SEEDSteps3
                           0x1'2005     0x1  Data  Lc  PROG_HsmPROGData.o [1]
PROG_HsmTrGET_SEEDSteps4
                           0x1'2006     0x1  Data  Lc  PROG_HsmPROGData.o [1]
PROG_HsmTrGET_SEEDSteps5
                           0x1'2007     0x1  Data  Lc  PROG_HsmPROGData.o [1]
PROG_HsmTrGET_SEEDSteps6
                           0x1'2008     0x1  Data  Lc  PROG_HsmPROGData.o [1]
PROG_HsmTrINIT             0x1'120c     0x8  Data  Lc  PROG_HsmPROGData.o [1]
PROG_HsmTrINITSteps1       0x1'1f9c     0x2  Data  Lc  PROG_HsmPROGData.o [1]
PROG_HsmTrLOCKED           0x1'1214    0x30  Data  Lc  PROG_HsmPROGData.o [1]
PROG_HsmTrLOCKEDSteps1     0x1'2009     0x1  Data  Lc  PROG_HsmPROGData.o [1]
PROG_HsmTrLOCKEDSteps2     0x1'200a     0x1  Data  Lc  PROG_HsmPROGData.o [1]
PROG_HsmTrLOCKEDSteps3     0x1'200b     0x1  Data  Lc  PROG_HsmPROGData.o [1]
PROG_HsmTrLOCKEDSteps4     0x1'200c     0x1  Data  Lc  PROG_HsmPROGData.o [1]
PROG_HsmTrLOCKEDSteps5     0x1'200d     0x1  Data  Lc  PROG_HsmPROGData.o [1]
PROG_HsmTrLOCKEDSteps6     0x1'200e     0x1  Data  Lc  PROG_HsmPROGData.o [1]
PROG_HsmTrPRE_INIT         0x1'1514    0x10  Data  Lc  PROG_HsmPROGData.o [1]
PROG_HsmTrPRE_INITSteps2
                           0x1'204d     0x1  Data  Lc  PROG_HsmPROGData.o [1]
PROG_HsmTrPROG_SESSION     0x1'1244    0x38  Data  Lc  PROG_HsmPROGData.o [1]
PROG_HsmTrPROG_SESSIONSteps1
                           0x1'200f     0x1  Data  Lc  PROG_HsmPROGData.o [1]
PROG_HsmTrPROG_SESSIONSteps2
                           0x1'2010     0x1  Data  Lc  PROG_HsmPROGData.o [1]
PROG_HsmTrPROG_SESSIONSteps3
                           0x1'2011     0x1  Data  Lc  PROG_HsmPROGData.o [1]
PROG_HsmTrPROG_SESSIONSteps4
                           0x1'2012     0x1  Data  Lc  PROG_HsmPROGData.o [1]
PROG_HsmTrPROG_SESSIONSteps5
                           0x1'2013     0x1  Data  Lc  PROG_HsmPROGData.o [1]
PROG_HsmTrPROG_SESSIONSteps6
                           0x1'2014     0x1  Data  Lc  PROG_HsmPROGData.o [1]
PROG_HsmTrPROG_SESSIONSteps7
                           0x1'2015     0x1  Data  Lc  PROG_HsmPROGData.o [1]
PROG_HsmTrRD               0x1'12dc     0x8  Data  Lc  PROG_HsmPROGData.o [1]
PROG_HsmTrRDSteps1         0x1'2021     0x1  Data  Lc  PROG_HsmPROGData.o [1]
PROG_HsmTrRD_FINISH        0x1'12e4     0x8  Data  Lc  PROG_HsmPROGData.o [1]
PROG_HsmTrRD_SIGNATURE     0x1'12ec     0x8  Data  Lc  PROG_HsmPROGData.o [1]
PROG_HsmTrRD_SIGNATURESteps1
                           0x1'2022     0x1  Data  Lc  PROG_HsmPROGData.o [1]
PROG_HsmTrRD_TOP           0x1'12b4    0x28  Data  Lc  PROG_HsmPROGData.o [1]
PROG_HsmTrRD_TOPSteps1     0x1'201d     0x1  Data  Lc  PROG_HsmPROGData.o [1]
PROG_HsmTrRD_TOPSteps2     0x1'201e     0x1  Data  Lc  PROG_HsmPROGData.o [1]
PROG_HsmTrRD_TOPSteps3     0x1'201f     0x1  Data  Lc  PROG_HsmPROGData.o [1]
PROG_HsmTrRD_TOPSteps5     0x1'2020     0x1  Data  Lc  PROG_HsmPROGData.o [1]
PROG_HsmTrREPROG           0x1'127c    0x38  Data  Lc  PROG_HsmPROGData.o [1]
PROG_HsmTrREPROGSteps1     0x1'2016     0x1  Data  Lc  PROG_HsmPROGData.o [1]
PROG_HsmTrREPROGSteps2     0x1'2017     0x1  Data  Lc  PROG_HsmPROGData.o [1]
PROG_HsmTrREPROGSteps3     0x1'2018     0x1  Data  Lc  PROG_HsmPROGData.o [1]
PROG_HsmTrREPROGSteps4     0x1'2019     0x1  Data  Lc  PROG_HsmPROGData.o [1]
PROG_HsmTrREPROGSteps5     0x1'201a     0x1  Data  Lc  PROG_HsmPROGData.o [1]
PROG_HsmTrREPROGSteps6     0x1'201b     0x1  Data  Lc  PROG_HsmPROGData.o [1]
PROG_HsmTrREPROGSteps7     0x1'201c     0x1  Data  Lc  PROG_HsmPROGData.o [1]
PROG_HsmTrRTE              0x1'1304    0x20  Data  Lc  PROG_HsmPROGData.o [1]
PROG_HsmTrRTESteps2        0x1'2025     0x1  Data  Lc  PROG_HsmPROGData.o [1]
PROG_HsmTrRTESteps3        0x1'2026     0x1  Data  Lc  PROG_HsmPROGData.o [1]
PROG_HsmTrRTE_DECOMP_FINISH
                           0x1'1324    0x10  Data  Lc  PROG_HsmPROGData.o [1]
PROG_HsmTrRTE_DECOMP_FINISHSteps1
                           0x1'2027     0x1  Data  Lc  PROG_HsmPROGData.o [1]
PROG_HsmTrRTE_DECOMP_FINISHSteps2
                           0x1'2028     0x1  Data  Lc  PROG_HsmPROGData.o [1]
PROG_HsmTrRTE_DECOMP_WRITE
                           0x1'1334     0x8  Data  Lc  PROG_HsmPROGData.o [1]
PROG_HsmTrRTE_DECOMP_WRITESteps1
                           0x1'2029     0x1  Data  Lc  PROG_HsmPROGData.o [1]
PROG_HsmTrRTE_DECOMP_WRITE_CHECK
                           0x1'133c    0x10  Data  Lc  PROG_HsmPROGData.o [1]
PROG_HsmTrRTE_DECOMP_WRITE_CHECKSteps1
                           0x1'1f9e     0x2  Data  Lc  PROG_HsmPROGData.o [1]
PROG_HsmTrRTE_DECOMP_WRITE_CHECKSteps2
                           0x1'202a     0x1  Data  Lc  PROG_HsmPROGData.o [1]
PROG_HsmTrRTE_DECRYPT_FINISH
                           0x1'134c    0x10  Data  Lc  PROG_HsmPROGData.o [1]
PROG_HsmTrRTE_DECRYPT_FINISHSteps1
                           0x1'202b     0x1  Data  Lc  PROG_HsmPROGData.o [1]
PROG_HsmTrRTE_FAILED       0x1'1374    0x18  Data  Lc  PROG_HsmPROGData.o [1]
PROG_HsmTrRTE_FAILEDSteps1
                           0x1'202d     0x1  Data  Lc  PROG_HsmPROGData.o [1]
PROG_HsmTrRTE_FINISH       0x1'138c    0x18  Data  Lc  PROG_HsmPROGData.o [1]
PROG_HsmTrRTE_FINISHSteps2
                           0x1'202e     0x1  Data  Lc  PROG_HsmPROGData.o [1]
PROG_HsmTrRTE_TOP          0x1'12f4    0x10  Data  Lc  PROG_HsmPROGData.o [1]
PROG_HsmTrRTE_TOPSteps1
                           0x1'2023     0x1  Data  Lc  PROG_HsmPROGData.o [1]
PROG_HsmTrRTE_TOPSteps2
                           0x1'2024     0x1  Data  Lc  PROG_HsmPROGData.o [1]
PROG_HsmTrRTE_WRITE        0x1'135c     0x8  Data  Lc  PROG_HsmPROGData.o [1]
PROG_HsmTrRTE_WRITE_CHECK
                           0x1'1364    0x10  Data  Lc  PROG_HsmPROGData.o [1]
PROG_HsmTrRTE_WRITE_CHECKSteps1
                           0x1'1fa0     0x2  Data  Lc  PROG_HsmPROGData.o [1]
PROG_HsmTrRTE_WRITE_CHECKSteps2
                           0x1'202c     0x1  Data  Lc  PROG_HsmPROGData.o [1]
PROG_HsmTrSIGNATURE_CHECK
                           0x1'107c    0x10  Data  Lc  PROG_HsmPROGData.o [1]
PROG_HsmTrSIGNATURE_CHECKSteps1
                           0x1'1f98     0x2  Data  Lc  PROG_HsmPROGData.o [1]
PROG_HsmTrSIGNATURE_CHECKSteps2
                           0x1'1f9a     0x2  Data  Lc  PROG_HsmPROGData.o [1]
PROG_HsmTrTD               0x1'13c4     0x8  Data  Lc  PROG_HsmPROGData.o [1]
PROG_HsmTrTD_CRC           0x1'13cc    0x18  Data  Lc  PROG_HsmPROGData.o [1]
PROG_HsmTrTD_CRCSteps1     0x1'2032     0x1  Data  Lc  PROG_HsmPROGData.o [1]
PROG_HsmTrTD_CRCSteps2     0x1'2033     0x1  Data  Lc  PROG_HsmPROGData.o [1]
PROG_HsmTrTD_CRCSteps3     0x1'2034     0x1  Data  Lc  PROG_HsmPROGData.o [1]
PROG_HsmTrTD_FAILED        0x1'13e4    0x20  Data  Lc  PROG_HsmPROGData.o [1]
PROG_HsmTrTD_FAILEDSteps3
                           0x1'2035     0x1  Data  Lc  PROG_HsmPROGData.o [1]
PROG_HsmTrTD_FAILEDSteps4
                           0x1'2036     0x1  Data  Lc  PROG_HsmPROGData.o [1]
PROG_HsmTrTD_STREAMING     0x1'1404     0x8  Data  Lc  PROG_HsmPROGData.o [1]
PROG_HsmTrTD_TOP           0x1'13a4    0x20  Data  Lc  PROG_HsmPROGData.o [1]
PROG_HsmTrTD_TOPSteps1     0x1'202f     0x1  Data  Lc  PROG_HsmPROGData.o [1]
PROG_HsmTrTD_TOPSteps2     0x1'2030     0x1  Data  Lc  PROG_HsmPROGData.o [1]
PROG_HsmTrTD_TOPSteps3     0x1'2031     0x1  Data  Lc  PROG_HsmPROGData.o [1]
PROG_HsmTrTD_WRITE         0x1'140c    0x10  Data  Lc  PROG_HsmPROGData.o [1]
PROG_HsmTrTD_WRITESteps1
                           0x1'2037     0x1  Data  Lc  PROG_HsmPROGData.o [1]
PROG_HsmTrTD_WRITESteps2
                           0x1'2038     0x1  Data  Lc  PROG_HsmPROGData.o [1]
PROG_HsmTrVERIFY_PARTIAL_SW_CHECKSUM
                           0x1'149c    0x18  Data  Lc  PROG_HsmPROGData.o [1]
PROG_HsmTrVERIFY_PARTIAL_SW_CHECKSUMSteps1
                           0x1'2045     0x1  Data  Lc  PROG_HsmPROGData.o [1]
PROG_HsmTrVERIFY_PARTIAL_SW_CHECKSUMSteps2
                           0x1'2046     0x1  Data  Lc  PROG_HsmPROGData.o [1]
PROG_HsmTrVERIFY_PARTIAL_SW_CHECKSUM_FINISH
                           0x1'14b4     0x8  Data  Lc  PROG_HsmPROGData.o [1]
PROG_HsmTrVERIFY_PARTIAL_SW_CHECKSUM_TOP
                           0x1'1454    0x48  Data  Lc  PROG_HsmPROGData.o [1]
PROG_HsmTrVERIFY_PARTIAL_SW_CHECKSUM_TOPSteps1
                           0x1'203d     0x1  Data  Lc  PROG_HsmPROGData.o [1]
PROG_HsmTrVERIFY_PARTIAL_SW_CHECKSUM_TOPSteps2
                           0x1'203e     0x1  Data  Lc  PROG_HsmPROGData.o [1]
PROG_HsmTrVERIFY_PARTIAL_SW_CHECKSUM_TOPSteps3
                           0x1'203f     0x1  Data  Lc  PROG_HsmPROGData.o [1]
PROG_HsmTrVERIFY_PARTIAL_SW_CHECKSUM_TOPSteps4
                           0x1'2040     0x1  Data  Lc  PROG_HsmPROGData.o [1]
PROG_HsmTrVERIFY_PARTIAL_SW_CHECKSUM_TOPSteps5
                           0x1'1fa2     0x2  Data  Lc  PROG_HsmPROGData.o [1]
PROG_HsmTrVERIFY_PARTIAL_SW_CHECKSUM_TOPSteps6
                           0x1'2041     0x1  Data  Lc  PROG_HsmPROGData.o [1]
PROG_HsmTrVERIFY_PARTIAL_SW_CHECKSUM_TOPSteps7
                           0x1'2042     0x1  Data  Lc  PROG_HsmPROGData.o [1]
PROG_HsmTrVERIFY_PARTIAL_SW_CHECKSUM_TOPSteps8
                           0x1'2043     0x1  Data  Lc  PROG_HsmPROGData.o [1]
PROG_HsmTrVERIFY_PARTIAL_SW_CHECKSUM_TOPSteps9
                           0x1'2044     0x1  Data  Lc  PROG_HsmPROGData.o [1]
PROG_HsmTrWFP_FINISHED     0x1'14f4    0x18  Data  Lc  PROG_HsmPROGData.o [1]
PROG_HsmTrWFP_INPROGRESS
                           0x1'150c     0x8  Data  Lc  PROG_HsmPROGData.o [1]
PROG_HsmTrWRITE            0x1'1434     0x8  Data  Lc  PROG_HsmPROGData.o [1]
PROG_HsmTrWRITE_CHECK      0x1'143c    0x18  Data  Lc  PROG_HsmPROGData.o [1]
PROG_HsmTrWRITE_CHECKSteps1
                           0x1'203a     0x1  Data  Lc  PROG_HsmPROGData.o [1]
PROG_HsmTrWRITE_CHECKSteps2
                           0x1'203b     0x1  Data  Lc  PROG_HsmPROGData.o [1]
PROG_HsmTrWRITE_CHECKSteps3
                           0x1'203c     0x1  Data  Lc  PROG_HsmPROGData.o [1]
PROG_HsmTrWRITE_FINGERPRINT
                           0x1'14bc    0x38  Data  Lc  PROG_HsmPROGData.o [1]
PROG_HsmTrWRITE_FINGERPRINTSteps1
                           0x1'2047     0x1  Data  Lc  PROG_HsmPROGData.o [1]
PROG_HsmTrWRITE_FINGERPRINTSteps2
                           0x1'2048     0x1  Data  Lc  PROG_HsmPROGData.o [1]
PROG_HsmTrWRITE_FINGERPRINTSteps3
                           0x1'2049     0x1  Data  Lc  PROG_HsmPROGData.o [1]
PROG_HsmTrWRITE_FINGERPRINTSteps4
                           0x1'204a     0x1  Data  Lc  PROG_HsmPROGData.o [1]
PROG_HsmTrWRITE_FINGERPRINTSteps6
                           0x1'204b     0x1  Data  Lc  PROG_HsmPROGData.o [1]
PROG_HsmTrWRITE_FINGERPRINTSteps7
                           0x1'204c     0x1  Data  Lc  PROG_HsmPROGData.o [1]
PROG_HsmTran                 0x76dd    0x62  Code  Lc  PROG_Hsm.o [1]
PROG_IncrementBlockSequenceCounter
                             0x4bed    0x12  Code  Gb  PROG_Prg.o [1]
PROG_Init                    0x3521    0xba  Code  Gb  PROG_Prg.o [1]
PROG_InvalidateSection_BlockID
                             0x6f03    0xae  Code  Gb  PROG_Cbk.o [1]
PROG_IsBlockValid            0x7251    0x8c  Code  Lc  PROG_Cbk.o [1]
PROG_IsValidApplication
                             0x6ee3    0x20  Code  Gb  PROG_Cbk.o [1]
PROG_JumpToApplication       0x6ed7     0x8  Code  Gb  PROG_Cbk.o [1]
PROG_Manage                  0x4a33     0x2  Code  Gb  PROG_Prg.o [1]
PROG_MemDataAccess           0x7367    0x32  Code  Gb  PROG_Mem.o [1]
PROG_MemFlash                0x7399    0x4c  Code  Lc  PROG_Mem.o [1]
PROG_MemGetNextSectorAddr
                             0x73e5    0x12  Code  Gb  PROG_Mem.o [1]
PROG_MemInit                 0x7365     0x2  Code  Gb  PROG_Mem.o [1]
PROG_MemStartErasing         0x551d    0x1e  Code  Gb  PROG_Cust_AppliCheck.o [1]
PROG_OpenProgrammingSession
                             0x3775     0x2  Code  Gb  PROG_Prg.o [1]
PROG_PartialVerificationCrc
                             0x55b7     0x6  Code  Gb  PROG_Cust_AppliCheck.o [1]
PROG_PreInit                 0xee45     0x2  Code  Gb  PROG_Cust_Init.o [1]
PROG_RD_Check                0x3c25    0xe4  Code  Gb  PROG_Prg.o [1]
PROG_ReadyToSleepManage
                             0x4a3d    0x1c  Code  Gb  PROG_Prg.o [1]
PROG_ReqCheckProgPreCondition
                             0x366d     0x4  Code  Gb  PROG_Prg.o [1]
PROG_RequestDownload         0x3627     0x4  Code  Gb  PROG_Prg.o [1]
PROG_RequestSeed             0x361f     0x4  Code  Gb  PROG_Prg.o [1]
PROG_RequestTransferExit
                             0x3661     0x4  Code  Gb  PROG_Prg.o [1]
PROG_RetrieveRequestData16
                             0x5593    0x24  Code  Gb  PROG_Cust_AppliCheck.o [1]
PROG_RetrieveRequestData32
                             0x5573    0x20  Code  Gb  PROG_Cust_AppliCheck.o [1]
PROG_ReturnsIsReProgRequestFromAppli
                             0x6ec7    0x10  Code  Gb  PROG_Cbk.o [1]
PROG_SendDsc02Resp           0x4a23    0x10  Code  Gb  PROG_Prg.o [1]
PROG_SendKey                 0x3623     0x4  Code  Gb  PROG_Prg.o [1]
PROG_SendNRC78               0x3aef     0x4  Code  Gb  PROG_Prg.o [1]
PROG_SendRespAfterReset
                             0x4dd7    0x16  Code  Gb  PROG_Prg.o [1]
PROG_Send_NRC                0x3fed     0x6  Code  Gb  PROG_Prg.o [1]
PROG_SetSecurityLevel        0x4c7d     0x8  Code  Gb  PROG_Prg.o [1]
PROG_SetSleepTimeout         0x37dd    0x12  Code  Gb  PROG_Prg.o [1]
PROG_SetTpParam              0x500b    0x32  Code  Gb  PROG_Prg.o [1]
PROG_SimulateCloseProgSession
                             0x493d    0x30  Code  Gb  PROG_Prg.o [1]
PROG_SimulateER              0x496d    0x1e  Code  Gb  PROG_Prg.o [1]
PROG_SimulateOpenProgSession
                             0x49a9    0x7a  Code  Gb  PROG_Prg.o [1]
PROG_Streaming               0x3f47    0x70  Code  Gb  PROG_Prg.o [1]
PROG_SwitchApplicationMode
                             0x5559    0x1a  Code  Gb  PROG_Cust_AppliCheck.o [1]
PROG_SwitchApplicationModeInd
                             0x6fb1     0x2  Code  Gb  PROG_Cbk.o [1]
PROG_TD                      0x4809    0xf0  Code  Gb  PROG_Prg.o [1]
PROG_TpRxInd                 0x35e5     0x6  Code  Gb  PROG_Prg.o [1]
PROG_TpStartOfReceptionInd
                             0x35eb     0xc  Code  Gb  PROG_Prg.o [1]
PROG_TpTxConf                0x35db     0xa  Code  Gb  PROG_Prg.o [1]
PROG_TransferData            0x362b    0x36  Code  Gb  PROG_Prg.o [1]
PROG_UpdateWfSuccessFlag
                             0x37f3    0x20  Code  Lc  PROG_Prg.o [1]
PROG_VerificationOnTheFly
                             0x46e1    0x32  Code  Gb  PROG_Prg.o [1]
PROG_VerifySignatureFinish
                             0x743d    0x28  Code  Gb  PROG_Cry.o [1]
PROG_VerifySignatureStart
                             0x73f9    0x26  Code  Gb  PROG_Cry.o [1]
PROG_VerifySignatureUpdate
                             0x741f    0x1e  Code  Gb  PROG_Cry.o [1]
PROG_Write                   0x417d     0x2  Code  Gb  PROG_Prg.o [1]
PROG_WriteCheck              0x417f   0x294  Code  Gb  PROG_Prg.o [1]
PROG_WriteFingerprint        0x3669     0x4  Code  Gb  PROG_Prg.o [1]
PROG_WriteFingerprintCheck
                             0x3851    0x32  Code  Gb  PROG_Prg.o [1]
PROG_WriteStatusCheck        0x4bff    0x3e  Code  Lc  PROG_Prg.o [1]
PROG_WriteStatusCheck_SubFunction
                             0x4c3d    0x40  Code  Lc  PROG_Prg.o [1]
PduR_BlPduRRTabUpTpConfigIdx
                           0x1'1fd1     0x1  Data  Gb  PduR_Lcfg.o [1]
PduR_BlPduRTpChangeParameter
                             0x6d11     0x8  Code  Gb  PduR_AdjLayerApi.o [1]
PduR_BlPduRTransmit          0x6d09     0x8  Code  Gb  PduR_AdjLayerApi.o [1]
PduR_CanTpCopyRxData         0x6d21     0x8  Code  Gb  PduR_AdjLayerApi.o [1]
PduR_CanTpCopyTxData         0x6d29     0xe  Code  Gb  PduR_AdjLayerApi.o [1]
PduR_CanTpRTabLoTpConfigIdx
                           0x1'1fd0     0x1  Data  Gb  PduR_Lcfg.o [1]
PduR_CanTpRxIndication       0x6d37     0x8  Code  Gb  PduR_AdjLayerApi.o [1]
PduR_CanTpStartOfReception
                             0x6d19     0x8  Code  Gb  PduR_AdjLayerApi.o [1]
PduR_CanTpTxConfirmation
                             0x6d3f     0x8  Code  Gb  PduR_AdjLayerApi.o [1]
PduR_ConfigLayout          0x1'0278    0xfc  Data  Gb  PduR_PBcfg.o [1]
PduR_GConfigPtr         0x1fff'ba48     0x4  Data  Gb  PduR.o [1]
PduR_GenericTpChangeParameter
                             0x9a2d    0x48  Code  Gb  PduR_GenericTpChangeParameter.o [1]
PduR_GenericTpCopyRxData
                             0x9abd    0x48  Code  Gb  PduR_GenericTpCopyRxData.o [1]
PduR_GenericTpCopyTxData
                             0x9b05    0x40  Code  Gb  PduR_GenericTpCopyTxData.o [1]
PduR_GenericTpRxIndication
                             0x9b45    0x44  Code  Gb  PduR_GenericTpRxIndication.o [1]
PduR_GenericTpStartOfReception
                             0x9a75    0x48  Code  Gb  PduR_GenericTpStartOfReception.o [1]
PduR_GenericTpTransmit       0x99e9    0x44  Code  Gb  PduR_GenericTpTransmit.o [1]
PduR_GenericTpTxConfirmation
                             0x9b89    0x44  Code  Gb  PduR_GenericTpTxConfirmation.o [1]
PduR_Init                    0x9089    0x14  Code  Gb  PduR_Init.o [1]
PduR_State              0x2000'273c     0x1  Data  Gb  PduR.o [1]
PduR_TpModuleAPI           0x1'0240    0x38  Data  Gb  PduR_Lcfg.o [1]
Port_Init                    0x2a01    0x10  Code  Gb  Port.o [1]
Port_PBCfgVariantPredefined
                           0x1'075c    0x18  Data  Gb  Port_PBcfg.o [1]
Port_Port_Ci_Init            0x54bb    0x44  Code  Gb  Port_Port_Ci.o [1]
Port_Port_Ci_Init_ConfiguredPins
                             0x540b    0xa4  Code  Lc  Port_Port_Ci.o [1]
Port_Port_Ci_Init_UnusedPins
                             0x534d    0xbe  Code  Lc  Port_Port_Ci.o [1]
Port_UnUsedPin             0x1'03b4     0x8  Data  Lc  Port_PBcfg.o [1]
Port_aPinConfigDefault     0x1'03bc   0x3a0  Data  Lc  Port_PBcfg.o [1]
Port_au16NoUnUsedPadsArrayDefault
                           0x1'0374    0x40  Data  Lc  Port_PBcfg.o [1]
Port_pConfig            0x2000'27bc     0x4  Data  Gb  Port.o [1]
RCM_ResetConfigPB0         0x1'01e8     0x8  Data  Lc  Mcu_PBcfg.o [1]
SA_Antiscanning              0x6cb1    0x46  Code  Gb  SA_Prg.o [1]
SA_CompareKey                0x6c8b    0x20  Code  Gb  SA_Prg.o [1]
SA_CustomCalculateKey        0x9995    0x40  Code  Gb  SA_Cbk.o [1]
SA_CustomRestoreAsRetryCnt
                             0x99d7     0x4  Code  Gb  SA_Cbk.o [1]
SA_CustomStoreAsRetryCnt
                             0x99d5     0x2  Code  Gb  SA_Cbk.o [1]
SA_GetSeed                   0x6c49    0x42  Code  Gb  SA_Prg.o [1]
SA_GetStatus                 0x6cab     0x6  Code  Gb  SA_Prg.o [1]
SA_Init                      0x6bf5    0x2e  Code  Gb  SA_Prg.o [1]
SA_Manage                    0x6c23    0x26  Code  Gb  SA_Prg.o [1]
SCG_ClockConfigPB0_0       0x1'00ac    0x20  Data  Lc  Mcu_PBcfg.o [1]
SIM_ClockConfigPB0_0       0x1'0040     0xc  Data  Lc  Mcu_PBcfg.o [1]
SIM_ConfigPB0              0x1'01f0    0x1c  Data  Lc  Mcu_PBcfg.o [1]
SIRC_ClockConfigPB0_0      0x1'0064    0x18  Data  Lc  Mcu_PBcfg.o [1]
SMC_ConfigPB0              0x1'0210     0x4  Data  Lc  Mcu_PBcfg.o [1]
SOSC_ClockConfigPB0_0      0x1'004c    0x18  Data  Lc  Mcu_PBcfg.o [1]
SPLL_ClockConfigPB0_0      0x1'0094    0x18  Data  Lc  Mcu_PBcfg.o [1]
SchM_Enter_CanIf_SCHM_CANIF_EXCLUSIVE_AREA_0
                             0x5735     0x4  Code  Gb  SchM.o [1]
SchM_Enter_CanSM_SCHM_CANSM_EXCLUSIVE_AREA_0
                             0x573d     0x4  Code  Gb  SchM.o [1]
SchM_Enter_CanTp_SCHM_CANTP_EXCLUSIVE_AREA_0
                             0x5745     0x4  Code  Gb  SchM.o [1]
SchM_Enter_Can_CAN_EXCLUSIVE_AREA_02
                             0x5751     0x4  Code  Gb  SchM.o [1]
SchM_Enter_Can_CAN_EXCLUSIVE_AREA_03
                             0x5781     0x4  Code  Gb  SchM.o [1]
SchM_Enter_Can_CAN_EXCLUSIVE_AREA_04
                             0x5771     0x4  Code  Gb  SchM.o [1]
SchM_Enter_Can_CAN_EXCLUSIVE_AREA_05
                             0x5769     0x4  Code  Gb  SchM.o [1]
SchM_Enter_Can_CAN_EXCLUSIVE_AREA_06
                             0x5789     0x4  Code  Gb  SchM.o [1]
SchM_Enter_Can_CAN_EXCLUSIVE_AREA_07
                             0x5791     0x4  Code  Gb  SchM.o [1]
SchM_Enter_Can_CAN_EXCLUSIVE_AREA_08
                             0x5761     0x4  Code  Gb  SchM.o [1]
SchM_Enter_Can_CAN_EXCLUSIVE_AREA_09
                             0x5779     0x4  Code  Gb  SchM.o [1]
SchM_Enter_Can_CAN_EXCLUSIVE_AREA_13
                             0x5759     0x4  Code  Gb  SchM.o [1]
SchM_Enter_Csm_SCHM_CSM_EXCLUSIVE_AREA_0
                             0x574d     0x2  Code  Gb  SchM.o [1]
SchM_Enter_PROG_SCHM_PROG_EXCLUSIVE_AREA_0
                             0x572d     0x4  Code  Gb  SchM.o [1]
SchM_Enter_Spi_SPI_EXCLUSIVE_AREA_01
                             0x5799     0x2  Code  Gb  SchM.o [1]
SchM_Enter_Spi_SPI_EXCLUSIVE_AREA_02
                             0x579d     0x2  Code  Gb  SchM.o [1]
SchM_Enter_Spi_SPI_EXCLUSIVE_AREA_03
                             0x57a1     0x2  Code  Gb  SchM.o [1]
SchM_Enter_Spi_SPI_EXCLUSIVE_AREA_04
                             0x57a5     0x2  Code  Gb  SchM.o [1]
SchM_Enter_Spi_SPI_EXCLUSIVE_AREA_06
                             0x57a9     0x2  Code  Gb  SchM.o [1]
SchM_Enter_Spi_SPI_EXCLUSIVE_AREA_07
                             0x57ad     0x2  Code  Gb  SchM.o [1]
SchM_Exit_CanIf_SCHM_CANIF_EXCLUSIVE_AREA_0
                             0x5739     0x4  Code  Gb  SchM.o [1]
SchM_Exit_CanSM_SCHM_CANSM_EXCLUSIVE_AREA_0
                             0x5741     0x4  Code  Gb  SchM.o [1]
SchM_Exit_CanTp_SCHM_CANTP_EXCLUSIVE_AREA_0
                             0x5749     0x4  Code  Gb  SchM.o [1]
SchM_Exit_Can_CAN_EXCLUSIVE_AREA_02
                             0x5755     0x4  Code  Gb  SchM.o [1]
SchM_Exit_Can_CAN_EXCLUSIVE_AREA_03
                             0x5785     0x4  Code  Gb  SchM.o [1]
SchM_Exit_Can_CAN_EXCLUSIVE_AREA_04
                             0x5775     0x4  Code  Gb  SchM.o [1]
SchM_Exit_Can_CAN_EXCLUSIVE_AREA_05
                             0x576d     0x4  Code  Gb  SchM.o [1]
SchM_Exit_Can_CAN_EXCLUSIVE_AREA_06
                             0x578d     0x4  Code  Gb  SchM.o [1]
SchM_Exit_Can_CAN_EXCLUSIVE_AREA_07
                             0x5795     0x4  Code  Gb  SchM.o [1]
SchM_Exit_Can_CAN_EXCLUSIVE_AREA_08
                             0x5765     0x4  Code  Gb  SchM.o [1]
SchM_Exit_Can_CAN_EXCLUSIVE_AREA_09
                             0x577d     0x4  Code  Gb  SchM.o [1]
SchM_Exit_Can_CAN_EXCLUSIVE_AREA_13
                             0x575d     0x4  Code  Gb  SchM.o [1]
SchM_Exit_Csm_SCHM_CSM_EXCLUSIVE_AREA_0
                             0x574f     0x2  Code  Gb  SchM.o [1]
SchM_Exit_PROG_SCHM_PROG_EXCLUSIVE_AREA_0
                             0x5731     0x4  Code  Gb  SchM.o [1]
SchM_Exit_Spi_SPI_EXCLUSIVE_AREA_01
                             0x579b     0x2  Code  Gb  SchM.o [1]
SchM_Exit_Spi_SPI_EXCLUSIVE_AREA_02
                             0x579f     0x2  Code  Gb  SchM.o [1]
SchM_Exit_Spi_SPI_EXCLUSIVE_AREA_03
                             0x57a3     0x2  Code  Gb  SchM.o [1]
SchM_Exit_Spi_SPI_EXCLUSIVE_AREA_04
                             0x57a7     0x2  Code  Gb  SchM.o [1]
SchM_Exit_Spi_SPI_EXCLUSIVE_AREA_06
                             0x57ab     0x2  Code  Gb  SchM.o [1]
SchM_Exit_Spi_SPI_EXCLUSIVE_AREA_07
                             0x57af     0x2  Code  Gb  SchM.o [1]
SpiAttributesConfig_PB0
                           0x1'1b40    0x10  Data  Lc  Spi_PBcfg.o [1]
SpiChannelConfig_PB0       0x1'1a38    0x3c  Data  Lc  Spi_PBcfg.o [1]
SpiExternalDeviceAttrsPB0
                        0x2000'281c     0x8  Data  Lc  Spi_PBcfg.o [1]
SpiIf_ClearStateAndReport
                             0x26bb    0xfe  Code  Lc  SpiIf.o [1]
SpiIf_DetermineSBCErrors
                             0x2669    0x52  Code  Lc  SpiIf.o [1]
SpiIf_Init                   0x27b9    0x96  Code  Gb  SpiIf.o [1]
SpiIf_Reset                  0x2959     0xe  Code  Gb  SpiIf.o [1]
SpiIf_Shutdown               0x28ad    0x42  Code  Gb  SpiIf.o [1]
SpiIf_runMainFunction        0x2863    0x3c  Code  Gb  SpiIf.o [1]
SpiJobConfig_PB0           0x1'1a74    0x78  Data  Lc  Spi_PBcfg.o [1]
SpiJob_0_ChannelAssignment_PB
                           0x1'204e     0x1  Data  Lc  Spi_PBcfg.o [1]
SpiJob_1_ChannelAssignment_PB
                           0x1'204f     0x1  Data  Lc  Spi_PBcfg.o [1]
SpiJob_2_ChannelAssignment_PB
                           0x1'2050     0x1  Data  Lc  Spi_PBcfg.o [1]
SpiSequenceConfig_PB0      0x1'1aec    0x30  Data  Lc  Spi_PBcfg.o [1]
SpiSequence_DIA_JobAssignment_PB
                           0x1'1fa6     0x2  Data  Lc  Spi_PBcfg.o [1]
SpiSequence_INIT_JobAssignment_PB
                           0x1'1fa8     0x2  Data  Lc  Spi_PBcfg.o [1]
SpiSequence_WDG_REFRESH_JobAssignment_PB
                           0x1'1fa4     0x2  Data  Lc  Spi_PBcfg.o [1]
Spi_Init                     0x2ad1   0x120  Code  Gb  Spi.o [1]
Spi_Ipw_DeInit               0x57c3    0x12  Code  Gb  Spi_IPW.o [1]
Spi_Ipw_Init                 0x57b1    0x12  Code  Gb  Spi_IPW.o [1]
Spi_Ipw_IrqConfig            0x583f    0x12  Code  Gb  Spi_IPW.o [1]
Spi_Ipw_IrqPoll              0x5863    0x12  Code  Gb  Spi_IPW.o [1]
Spi_Ipw_JobTransfer          0x5821    0x1e  Code  Gb  Spi_IPW.o [1]
Spi_Ipw_PrepareCacheInformation
                             0x57d5     0x4  Code  Gb  Spi_IPW.o [1]
Spi_Ipw_SyncTransmit         0x57d9    0x48  Code  Gb  Spi_IPW.o [1]
Spi_JobTransferFinished
                             0x2d75    0xc2  Code  Gb  Spi.o [1]
Spi_LPspi_ChannelTransferFifoInitRX
                             0x85b3    0x20  Code  Lc  Spi_LPspi.o [1]
Spi_LPspi_ChannelTransferFifoInitTX
                             0x852b    0x88  Code  Lc  Spi_LPspi.o [1]
Spi_LPspi_DeInit             0x8507    0x24  Code  Gb  Spi_LPspi.o [1]
Spi_LPspi_Init               0x83e1    0x92  Code  Gb  Spi_LPspi.o [1]
Spi_LPspi_IrqConfig          0x8473    0x44  Code  Gb  Spi_LPspi.o [1]
Spi_LPspi_IrqPoll            0x84b7    0x50  Code  Gb  Spi_LPspi.o [1]
Spi_LPspi_IsrFifoRx          0x8977    0xbc  Code  Gb  Spi_LPspi.o [1]
Spi_LPspi_JobTransfer        0x88f3    0x84  Code  Gb  Spi_LPspi.o [1]
Spi_LPspi_JobTransferFifoDrain
                             0x86df    0x9a  Code  Lc  Spi_LPspi.o [1]
Spi_LPspi_JobTransferFifoFill
                             0x85d3    0x6a  Code  Lc  Spi_LPspi.o [1]
Spi_LPspi_PrepareCacheInformation
                             0x8779   0x17a  Code  Gb  Spi_LPspi.o [1]
Spi_LPspi_SyncTransmit       0x8ae9    0xec  Code  Gb  Spi_LPspi.o [1]
Spi_LPspi_SyncTransmitJob
                             0x8bd5   0x158  Code  Gb  Spi_LPspi.o [1]
Spi_LPspi_SyncTransmitRX
                             0x8ec7    0xfc  Code  Lc  Spi_LPspi.o [1]
Spi_LPspi_SyncTransmitState
                        0x2000'2608    0x30  Data  Lc  Spi_LPspi.o [1]
Spi_LPspi_SyncTransmitTX
                             0x8e71    0x56  Code  Lc  Spi_LPspi.o [1]
Spi_LPspi_SyncTransmit_Fast
                             0x8d2d   0x144  Code  Gb  Spi_LPspi.o [1]
Spi_LPspi_TransferStatus
                             0x8a4f    0x9a  Code  Lc  Spi_LPspi.o [1]
Spi_LPspi_WriteTxFifo        0x863d    0xa2  Code  Lc  Spi_LPspi.o [1]
Spi_LPspi_aChannelsAttributes
                        0x2000'25cc    0x3c  Data  Lc  Spi_LPspi.o [1]
Spi_LPspi_aDeviceState  0x2000'263c    0x64  Data  Gb  Spi_LPspi.o [1]
Spi_LPspi_aSeqsAttributes
                        0x2000'2578    0x54  Data  Lc  Spi_LPspi.o [1]
Spi_LPspi_apOneJobSeqsOptimized
                        0x2000'27e8     0xc  Data  Gb  Spi_LPspi.o [1]
Spi_LPspi_au32BaseAddrs
                           0x1'1a04    0x34  Data  Gb  Spi_LPspi.o [1]
Spi_LPspi_u32ReadDiscard
                        0x2000'2638     0x4  Data  Lc  Spi_LPspi.o [1]
Spi_MainFunction_Handling
                             0x2ceb    0x16  Code  Gb  Spi.o [1]
Spi_PBCfgVariantPredefined
                           0x1'1b5c    0x1c  Data  Gb  Spi_PBcfg.o [1]
Spi_ReadIB                   0x2c47    0x38  Code  Gb  Spi.o [1]
Spi_ScheduleJob              0x2a5d    0x74  Code  Lc  Spi.o [1]
Spi_ScheduleNextJob          0x2d01    0x74  Code  Lc  Spi.o [1]
Spi_SyncTransmit             0x2c89    0x62  Code  Gb  Spi.o [1]
Spi_WriteIB                  0x2bf1    0x56  Code  Gb  Spi.o [1]
Spi_aSpiChannelState    0x2000'2560     0xc  Data  Gb  Spi.o [1]
Spi_aSpiHWUnitQueueArray
                        0x2000'24f8    0x14  Data  Lc  Spi.o [1]
Spi_aSpiJobState        0x2000'253c    0x24  Data  Gb  Spi.o [1]
Spi_aSpiSequenceState   0x2000'250c    0x30  Data  Gb  Spi.o [1]
Spi_au32SpiSeqUsedHWUnits
                        0x2000'256c     0xc  Data  Lc  Spi.o [1]
Spi_pcSpiConfigPtr      0x2000'27e0     0x4  Data  Gb  Spi.o [1]
Spi_u32SpiBusySyncHWUnitsStatus
                        0x2000'27e4     0x4  Data  Lc  Spi.o [1]
TS_MemCpy32                  0x6e59    0x4e  Code  Gb  TSMem.o [1]
UDS_AnswerOrNot              0x6501    0x1c  Code  Lc  UDS_Prg.o [1]
UDS_CustomPositiveAnswerInd
                             0x96b5     0x2  Code  Gb  UDS_Cbk.o [1]
UDS_DiagSession              0x6529    0xce  Code  Lc  UDS_Prg.o [1]
UDS_DidFiltering             0x5f2f    0x46  Code  Lc  UDS_Prg.o [1]
UDS_DidSessionFiltering2
                             0x5ec1    0x4a  Code  Lc  UDS_Prg.o [1]
UDS_FilteringCfg1            0x5abf    0xb4  Code  Lc  UDS_Prg.o [1]
UDS_FilteringCfg2            0x5d43    0xb4  Code  Lc  UDS_Prg.o [1]
UDS_FilteringCfg3            0x60ef    0x9c  Code  Lc  UDS_Prg.o [1]
UDS_GetCurrentSession        0x6821    0x72  Code  Gb  UDS_Prg.o [1]
UDS_GetRoutineStatus         0x63eb    0x2e  Code  Lc  UDS_Prg.o [1]
UDS_Init                     0x5901    0x38  Code  Gb  UDS_Prg.o [1]
UDS_IsPending                0x68eb     0xc  Code  Gb  UDS_Prg.o [1]
UDS_LongRequestEnd           0x666f    0x52  Code  Gb  UDS_Prg.o [1]
UDS_LongRequestRespTxConf
                             0x6811     0x8  Code  Gb  UDS_Prg.o [1]
UDS_LongRequestResponseInd
                             0x68e1     0xa  Code  Lc  UDS_Prg.o [1]
UDS_Manage                   0x66c5    0x88  Code  Gb  UDS_Prg.o [1]
UDS_NegativeAnswer           0x6419    0x46  Code  Lc  UDS_Prg.o [1]
UDS_P2AboutToExpireInd       0x96bb     0x2  Code  Gb  UDS_Cbk.o [1]
UDS_PositiveAnswer           0x6469    0x90  Code  Lc  UDS_Prg.o [1]
UDS_RdbiManagement           0x5f75   0x16e  Code  Lc  UDS_Prg.o [1]
UDS_ReadDataByIdentifier
                             0x96bd   0x1dc  Code  Gb  UDS_Cbk.o [1]
UDS_ReloadTStopDiag          0x67b9    0x50  Code  Gb  UDS_Prg.o [1]
UDS_ResponsePending_Manage
                             0x6755    0x64  Code  Gb  UDS_Prg.o [1]
UDS_RiFiltering              0x62f9    0x4a  Code  Lc  UDS_Prg.o [1]
UDS_RiSessionFiltering3
                             0x62ab    0x4e  Code  Lc  UDS_Prg.o [1]
UDS_RxRequest                0x5939    0x10  Code  Gb  UDS_Prg.o [1]
UDS_RxRequestWithAddrMode
                             0x5949   0x176  Code  Gb  UDS_Prg.o [1]
UDS_SecurityLevelCheck       0x6893    0x46  Code  Lc  UDS_Prg.o [1]
UDS_SelectSessionMask        0x65f7    0x78  Code  Lc  UDS_Prg.o [1]
UDS_ServiceFiltering1        0x5b73    0x56  Code  Lc  UDS_Prg.o [1]
UDS_ServiceFiltering2        0x5e2d    0x32  Code  Lc  UDS_Prg.o [1]
UDS_ServiceFiltering3        0x618b    0x34  Code  Lc  UDS_Prg.o [1]
UDS_SessionFiltering1        0x5c5f    0x46  Code  Lc  UDS_Prg.o [1]
UDS_SessionFiltering2        0x5e79    0x38  Code  Lc  UDS_Prg.o [1]
UDS_SessionFiltering3        0x625f    0x3c  Code  Lc  UDS_Prg.o [1]
UDS_SessionStatusInd         0x3373    0x3c  Code  Gb  BlPduR_Prg.o [1]
UDS_StartRoutineControl
                             0x634b    0x2e  Code  Lc  UDS_Prg.o [1]
UDS_StopNRC78Timer           0x6819     0x8  Code  Gb  UDS_Prg.o [1]
UDS_StopRoutineControl       0x6379    0x2e  Code  Lc  UDS_Prg.o [1]
UDS_StopSessionTimer         0x6809     0x2  Code  Gb  UDS_Prg.o [1]
UDS_SubServiceFiltering1
                             0x5bc9    0x96  Code  Lc  UDS_Prg.o [1]
UDS_SubServiceFiltering3
                             0x61dd    0x82  Code  Lc  UDS_Prg.o [1]
UDS_SubServiceSessionFiltering1
                             0x5ca5    0x8e  Code  Lc  UDS_Prg.o [1]
Watchdog_Trigger             0x83dd     0x2  Code  Gb  Watchdog.o [1]
__Flash_API_RAM_SECTION_END_ADDR {Abs}
                        0x1fff'91ff          Data  Gb  <internal module>
__Flash_API_RAM_SECTION_START_ADDR {Abs}
                        0x1fff'9000          Data  Gb  <internal module>
__Flash_API_ROM_SECTION_END_ADDR {Abs}
                             0x1dff          Data  Gb  <internal module>
__Flash_API_ROM_SECTION_START_ADDR {Abs}
                             0x1c00          Data  Gb  <internal module>
__GLBL_RAM_END {Abs}    0x2000'3eff          Data  Gb  <internal module>
__GLBL_RAM_START {Abs}  0x1fff'9200          Data  Gb  <internal module>
__GLBL_ROM_END {Abs}       0x1'ffff          Data  Gb  <internal module>
__GLBL_ROM_START {Abs}       0x1000          Data  Gb  <internal module>
__aeabi_memclr               0xc691          Code  Gb  ABImemclr.o [2]
__aeabi_memclr4              0x96ad          Code  Gb  ABImemclr4.o [2]
__aeabi_memset4              0x9959          Code  Gb  ABImemset48.o [2]
__aeabi_memset8              0x9959          Code  Gb  ABImemset48.o [2]
__iar_Memset4_word           0x9961          Code  Gb  ABImemset48.o [2]
__iar_Memset8_word           0x9961          Code  Gb  ABImemset48.o [2]
__iar_small_Memcpy           0x7d45          Code  Gb  ABImemcpy_small.o [2]
__iar_small_Memset           0xc699          Code  Gb  ABImemset_small.o [2]
__iar_small_Memset_word
                             0xc699          Code  Gb  ABImemset_small.o [2]
__iar_small_memcpy           0x7d41          Code  Gb  ABImemcpy_small.o [2]
__iar_small_memcpy4          0x7d41          Code  Gb  ABImemcpy_small.o [2]
__iar_small_memcpy8          0x7d41          Code  Gb  ABImemcpy_small.o [2]
__iar_small_memset           0xc699          Code  Gb  ABImemset_small.o [2]
auCanId_0               0x2000'2798     0xc  Data  Gb  BlPduR_Cfg.o [1]
auCanId_1               0x2000'27a4     0xc  Data  Gb  BlPduR_Cfg.o [1]
aubDataSlicerSync       0x1fff'ba14     0x4  Data  Gb  FLASH_Prg.o [1]
boardDisableInterruptsAsm
                             0x1071          Code  Gb  boardStartup.o [1]
boardEnableInterruptsAsm
                             0x1075          Code  Gb  boardStartup.o [1]
boardInvalidException        0x100b          Code  Gb  boardStartup.o [1]
boardInvalidInterrupt        0x1009          Code  Gb  boardStartup.o [1]
boardResetStart              0x1039          Code  Gb  boardStartup.o [1]
cu8BusStatRegister         0x1'1fc2     0x2  Data  Gb  SpiIf.o [1]
cu8DevStatRegister         0x1'1fc0     0x2  Data  Gb  SpiIf.o [1]
cu8FamProdStateRegister
                           0x1'1fcc     0x2  Data  Gb  SpiIf.o [1]
cu8GpioOcStatRegister      0x1'1fc8     0x2  Data  Gb  SpiIf.o [1]
cu8GpioOlStatRegister      0x1'1fca     0x2  Data  Gb  SpiIf.o [1]
cu8HwCtrl0Register         0x1'1faa     0x2  Data  Gb  SpiIf.o [1]
cu8HwCtrl1Register         0x1'1fac     0x2  Data  Gb  SpiIf.o [1]
cu8HwCtrl2Register         0x1'1fae     0x2  Data  Gb  SpiIf.o [1]
cu8PwmCtrlRegister         0x1'1fb6     0x2  Data  Gb  SpiIf.o [1]
cu8SupStat0Register        0x1'1fbc     0x2  Data  Gb  SpiIf.o [1]
cu8SupStat1Register        0x1'1fba     0x2  Data  Gb  SpiIf.o [1]
cu8ThermalStatRegister     0x1'1fbe     0x2  Data  Gb  SpiIf.o [1]
cu8TimerCtrlRegister       0x1'1fb4     0x2  Data  Gb  SpiIf.o [1]
cu8WKCtrl0Register         0x1'1fb0     0x2  Data  Gb  SpiIf.o [1]
cu8WKCtrl1Register         0x1'1fb2     0x2  Data  Gb  SpiIf.o [1]
cu8WakeStat0Register       0x1'1fc4     0x2  Data  Gb  SpiIf.o [1]
cu8WakeStat1Register       0x1'1fc6     0x2  Data  Gb  SpiIf.o [1]
cu8WdgRegister             0x1'1fb8     0x2  Data  Gb  SpiIf.o [1]
gFlag                   0x2000'273e     0x1  Data  Gb  PROG_Cbk.o [1]
group_DATABSS$$Base     0x1fff'9200           --   Gb  - Linker created -
group_DATABSS$$Limit    0x2000'2838           --   Gb  - Linker created -
m_aMagicNumProgrammedValue
                           0x1'0774     0x8  Data  Lc  PROG_Cbk.o [1]
m_aMagicNumRevokedValue
                           0x1'077c     0x8  Data  Lc  PROG_Cbk.o [1]
m_apstReceptionBuffer   0x1fff'aa40     0x8  Data  Gb  BlPduR_Prg.o [1]
m_astCfgMemory             0x1'0904    0x10  Data  Gb  PROG_Cfg.o [1]
m_astDiagSrvCfg1           0x1'1c1c    0xa8  Data  Gb  UDS_Cfg.o [1]
m_astDiagSrvCfg2           0x1'1cc4   0x220  Data  Gb  UDS_Cfg.o [1]
m_astDiagSrvCfg3           0x1'1ee4    0x60  Data  Gb  UDS_Cfg.o [1]
m_aubCalculatedKey      0x2000'24e8     0x4  Data  Lc  SA_Prg.o [1]
m_aubCrcData            0x2000'21b0    0x20  Data  Lc  PROG_Prg.o [1]
m_aubExpectedSignature  0x2000'0fa8   0x180  Data  Gb  PROG_Prg.o [1]
m_aubFingerPrint        0x1fff'ba4c     0xc  Data  Lc  PROG_Cbk.o [1]
m_aubPROGPublicModulus     0x1'0784   0x180  Data  Gb  PROG_Cbk.o [1]
m_aubTPFuncBuffer       0x1fff'aa0c     0x8  Data  Lc  BlPduR_Prg.o [1]
m_aubUdsData            0x2000'2190     0x8  Data  Lc  PROG_Prg.o [1]
m_crc32tab                 0x1'0964   0x400  Data  Lc  PROG_Cust_Crc.o [1]
m_eCryptoState          0x2000'2741     0x1  Data  Lc  PROG_Cry.o [1]
m_eCryptoStatus         0x2000'273f     0x1  Data  Lc  PROG_Cry.o [1]
m_eEncryptDecryptState  0x2000'2744     0x1  Data  Gb  PROG_Encrypt.o [1]
m_eEncryptDecryptStatus
                        0x2000'2745     0x1  Data  Lc  PROG_Encrypt.o [1]
m_eSaStatus             0x2000'2758     0x1  Data  Gb  SA_Prg.o [1]
m_eSessionCode          0x2000'271c     0x2  Data  Lc  UDS_Prg.o [1]
m_eSessionIdx           0x2000'2759     0x1  Data  Lc  UDS_Prg.o [1]
m_eSessionMask          0x2000'271e     0x2  Data  Lc  UDS_Prg.o [1]
m_eSimRxReqState        0x2000'272b     0x1  Data  Gb  BlPduR_Prg.o [1]
m_eSuppresPosRspMsgIndicationBit
                        0x2000'275b     0x1  Data  Lc  UDS_Prg.o [1]
m_eUdsAddrMode          0x2000'275e     0x1  Data  Lc  UDS_Prg.o [1]
m_pstRxCurrentBufferConfig
                        0x1fff'aa3c     0x4  Data  Gb  BlPduR_Prg.o [1]
m_pubInitVector         0x2000'0f34     0x4  Data  Lc  PROG_Encrypt.o [1]
m_pubProgCryptoSignature
                        0x1fff'baf4     0x4  Data  Lc  PROG_Cry.o [1]
m_pubTxBuffer           0x1fff'aa20     0x4  Data  Gb  BlPduR_Prg.o [1]
m_stAntiscanInfo        0x2000'24ec     0xc  Data  Lc  SA_Prg.o [1]
m_stCryptoData          0x2000'116c  0x1024  Data  Lc  PROG_Prg.o [1]
m_stCurrentSegment      0x2000'0f8c     0xc  Data  Gb  PROG_Prg.o [1]
m_stDataProgVerification
                        0x2000'0f98    0x10  Data  Gb  PROG_Prg.o [1]
m_stDiagMessageInfo     0x2000'0f80     0xc  Data  Gb  PROG_Prg.o [1]
m_stFirstCheckMemoryAnswerInfo
                        0x2000'1154     0xc  Data  Lc  PROG_Prg.o [1]
m_stInBuffContext       0x2000'0af8    0x10  Data  Lc  PROG_Decomp.o [1]
m_stLongRequest         0x2000'2700    0x10  Data  Lc  UDS_Prg.o [1]
m_stOutBuffContext      0x2000'0b08   0x414  Data  Lc  PROG_Decomp.o [1]
m_stPageBuffer          0x2000'1160     0xc  Data  Lc  PROG_Prg.o [1]
m_stProgAsymPublicKey   0x2000'21d8   0x310  Data  Gb  PROG_Prg.o [1]
m_stProgCplContext      0x1fff'baf8  0x5000  Data  Gb  PROG_Decomp.o [1]
m_stProgDecryptionKey   0x2000'0f20    0x14  Data  Lc  PROG_Encrypt.o [1]
m_stReprogInfo          0x2000'1128    0x10  Data  Gb  PROG_Prg.o [1]
m_stRxFuncBufferConfig  0x1fff'aa30     0xc  Data  Lc  BlPduR_Prg.o [1]
m_stRxFuncBufferInfo    0x1fff'aa24     0xc  Data  Lc  BlPduR_Prg.o [1]
m_stSegList             0x2000'2198    0x14  Data  Gb  PROG_Prg.o [1]
m_stSessionInfo            0x1'1f44    0x50  Data  Gb  UDS_Cfg.o [1]
m_stTxBufferInfo        0x1fff'aa14     0xc  Data  Gb  BlPduR_Prg.o [1]
m_stWfSuccess           0x2000'21d0     0x4  Data  Lc  PROG_Prg.o [1]
m_stWriteInfo           0x2000'1138    0x1c  Data  Gb  PROG_Prg.o [1]
m_uProgDecompStatus     0x2000'2743     0x1  Data  Gb  PROG_Decomp.o [1]
m_uSessionTimeCnt       0x2000'2720     0x2  Data  Lc  UDS_Prg.o [1]
m_uSrvIdx               0x2000'275a     0x1  Data  Lc  UDS_Prg.o [1]
m_uStartSrvIdx          0x2000'275c     0x1  Data  Lc  UDS_Prg.o [1]
m_uStartSubSrvIdx       0x2000'275d     0x1  Data  Lc  UDS_Prg.o [1]
m_uTreatmentStatus      0x2000'2728     0x1  Data  Lc  BlPduR_Prg.o [1]
m_ubActivePartialVerifyCrc
                        0x2000'2742     0x1  Data  Gb  PROG_Cust_AppliCheck.o [1]
m_ubBoardIntLockNestingCounter
                        0x2000'272c     0x1  Data  Gb  board.o [1]
m_ubBootInDefaultSession
                        0x2000'2748     0x1  Data  Gb  PROG_Prg.o [1]
m_ubCRC_Calculation     0x2000'274d     0x1  Data  Gb  PROG_Prg.o [1]
m_ubCheckMemoryFinishState
                        0x2000'274e     0x1  Data  Lc  PROG_Prg.o [1]
m_ubCrcStart            0x2000'274a     0x1  Data  Gb  PROG_Prg.o [1]
m_ubCurrentConnection   0x2000'2729     0x1  Data  Gb  BlPduR_Prg.o [1]
m_ubDecompNotWritten    0x2000'2757     0x1  Data  Gb  PROG_Prg.o [1]
m_ubEncryptionMethod    0x2000'2755     0x1  Data  Lc  PROG_Prg.o [1]
m_ubFinishDecryption    0x2000'274c     0x1  Data  Gb  PROG_Prg.o [1]
m_ubGroupIdVal          0x2000'2727     0x1  Data  Lc  BlPduR_Prg.o [1]
m_ubNbSectEraseCnt      0x2000'2754     0x1  Data  Lc  PROG_Prg.o [1]
m_ubProgFirstCall       0x2000'2751     0x1  Data  Lc  PROG_Prg.o [1]
m_ubProgIsInit          0x2000'2749     0x1  Data  Gb  PROG_Prg.o [1]
m_ubProgSecurityLevel   0x2000'2753     0x1  Data  Lc  PROG_Prg.o [1]
m_ubProgVerifyResult    0x2000'2740     0x1  Data  Lc  PROG_Cry.o [1]
m_ubRTEReceived         0x2000'2752     0x1  Data  Lc  PROG_Prg.o [1]
m_ubReceiveBuffCount    0x2000'2726     0x1  Data  Gb  BlPduR_Prg.o [1]
m_ubSameRequest         0x2000'274f     0x1  Data  Lc  PROG_Prg.o [1]
m_ubSendResponseafterReset
                        0x2000'2747     0x1  Data  Gb  PROG_Prg.o [1]
m_ubSendResponsetoOpenProgramming
                        0x2000'2746     0x1  Data  Gb  PROG_Prg.o [1]
m_ubSimulateProgSessionWithResponse
                        0x2000'274b     0x1  Data  Gb  PROG_Prg.o [1]
m_ubStoredConnection    0x2000'272a     0x1  Data  Gb  BlPduR_Prg.o [1]
m_ubTDReceive           0x2000'2750     0x1  Data  Lc  PROG_Prg.o [1]
m_ubVerificationMethod  0x2000'2833     0x1  Data  Gb  PROG_Prg.o [1]
m_ubWaitCryptoBeforeTdEnd
                        0x2000'2756     0x1  Data  Gb  PROG_Prg.o [1]
m_ulCompressedDataSize  0x2000'0f1c     0x4  Data  Lc  PROG_Decomp.o [1]
m_ulExpectedCks         0x2000'21d4     0x4  Data  Gb  PROG_Prg.o [1]
m_ulInitVectorLength    0x2000'0f38     0x4  Data  Lc  PROG_Encrypt.o [1]
m_ulSleepTimeout        0x2000'21ac     0x4  Data  Lc  PROG_Prg.o [1]
m_uwBlPduRTpBsVal       0x2000'26a2     0x2  Data  Lc  BlPduR_Prg.o [1]
m_uwBlPduRTpStminVal    0x2000'26a6     0x2  Data  Lc  BlPduR_Prg.o [1]
m_uwDid                 0x2000'2722     0x2  Data  Lc  UDS_Prg.o [1]
m_uwRi                  0x2000'2724     0x2  Data  Lc  UDS_Prg.o [1]
m_uwStreamingLength     0x2000'271a     0x2  Data  Lc  PROG_Prg.o [1]
main                         0x25f9    0x70  Code  Gb  main.o [1]
noinit$$Base            0x2000'3f00          Data  Gb  - Linker created -
noinit$$Limit           0x2000'3f0c           --   Gb  - Linker created -
reset_vector                 0x1000     0x8  Data  Gb  board_reset_vector.o [1]
reset_vector$$Base           0x1000           --   Gb  - Linker created -
reset_vector$$Limit          0x10ae           --   Gb  - Linker created -
rodata$$Base                 0xf400           --   Gb  - Linker created -
rodata$$Limit              0x1'2051           --   Gb  - Linker created -
stCfgBlock                 0x1'0950    0x14  Data  Gb  PROG_Cfg.o [1]
stConfigSegment            0x1'0914    0x3c  Data  Gb  PROG_Cfg.o [1]
stMultipleIdConfig           0xf400    0x10  Data  Gb  BlPduR_Cfg.o [1]
stNVMBootloaderData     0x1fff'ba58    0x9c  Data  Gb  PROG_Cbk.o [1]
stNoIntShareVar         0x2000'3f00     0xc  Data  Gb  PROG_Cbk.o [1]
stPduConnection         0x2000'2780     0xc  Data  Gb  BlPduR_Cfg.o [1]
stRxPdu                 0x2000'2760    0x20  Data  Gb  BlPduR_Cfg.o [1]
stRxPhysBufferConfig    0x2000'278c     0xc  Data  Gb  BlPduR_Cfg.o [1]
stRxPhysBufferInfo      0x1fff'aa00     0xc  Data  Gb  BlPduR_Cfg.o [1]
text$$Base                   0x2300           --   Gb  - Linker created -
text$$Limit                  0xf3e4           --   Gb  - Linker created -
u32StatusInformationSBC
                        0x2000'2824     0x4  Data  Lc  SpiIf.o [1]
u8BusCtrl0Register      0x2000'282a     0x2  Data  Lc  SpiIf.o [1]
u8CounterBaseRefreshWD  0x2000'2834     0x1  Data  Lc  SpiIf.o [1]
u8CurrentBlock          0x2000'273d     0x1  Data  Gb  PROG_Cbk.o [1]
u8DecryptKey            0x2000'27d0    0x10  Data  Gb  PROG_Cbk.o [1]
u8DiagBuffer            0x2000'26bc    0x44  Data  Gb  UDS_Cbk.o [1]
u8InitKey               0x2000'27c0    0x10  Data  Gb  PROG_Cbk.o [1]
u8MSCtrlRegister        0x2000'282c     0x2  Data  Lc  SpiIf.o [1]
u8SPILocalResponse      0x2000'282e     0x2  Data  Lc  SpiIf.o [1]
u8SPIResponse           0x2000'2828     0x2  Data  Lc  SpiIf.o [1]
uAddrSlicerSync         0x1fff'ba10     0x4  Data  Gb  FLASH_Prg.o [1]
ubProcessFlag           0x2000'2738     0x1  Data  Gb  FLASH_Prg.o [1]
uwEndBlockNo            0x2000'2718     0x2  Data  Gb  FLASH_Prg.o [1]
uwGlobalStatus          0x2000'2832     0x1  Data  Gb  FLASH_Prg.o [1]
uwNotAlignedDataLen     0x2000'2714     0x2  Data  Gb  FLASH_Prg.o [1]
uwStartBlockNo          0x2000'2716     0x2  Data  Gb  FLASH_Prg.o [1]
uwWriteIncrement        0x2000'2712     0x2  Data  Gb  FLASH_Prg.o [1]
uwremainProcessTimes    0x2000'2710     0x2  Data  Gb  FLASH_Prg.o [1]


[1] = C:\Git\eCS_Platform_Git\Tools\Build_Env\Workspace\Outputs\fbl\Obj
[2] = rt7M_tl.a

  54 738 bytes of readonly  code memory
  11 569 bytes of readonly  data memory
  38 464 bytes of readwrite data memory

Errors: none
Warnings: none
